(dp0
S''
p1
(I726
I746
tp2
sVleft side-cross
p3
(I0
I9
tp4
sVpenalty-left footed shot
p5
(I881
I1077
tp6
sVleft footed shot-headed pass
p7
(I9
I203
tp8
sVright side-left footed shot-headed pass
p9
(I11
I254
tp10
sVleft side of the six yard box-headed pass
p11
(I1
I4
tp12
sVright side-left footed shot-direct free kick
p13
(I0
I1
tp14
sVlong range-left footed shot
p15
(I57
I2791
tp16
sVleft side-header-direct free kick
p17
(I0
I2
tp18
sVvery close range-left footed shot-through ball
p19
(I33
I45
tp20
sVvery close range-corner
p21
(I18
I18
tp22
sVleft side-right footed shot-cross
p23
(I42
I963
tp24
sVright side-right footed shot-through ball
p25
(I600
I3476
tp26
sVcentre of the box-left footed shot-fast break
p27
(I360
I622
tp28
sVleft side-right footed shot-through ball
p29
(I183
I1005
tp30
sVcorner
p31
(I485
I492
tp32
sVleft footed shot-cross
p33
(I22
I442
tp34
sVlong range-right footed shot-direct free kick
p35
(I0
I9
tp36
sVleft side of the six yard box-left footed shot-through ball
p37
(I53
I141
tp38
sVlong range-left footed shot-cross
p39
(I1
I28
tp40
sVoutside the box-header-cross
p41
(I2
I135
tp42
sVoutside the box-right footed shot-corner
p43
(I67
I1230
tp44
sVoutside the box-header
p45
(I7
I247
tp46
sVcentre of the box-left footed shot-through ball
p47
(I891
I2593
tp48
sVpenalty
p49
(I4030
I4973
tp50
sVcentre of the box-left footed shot-corner
p51
(I80
I296
tp52
sVvery close range-header-cross
p53
(I1508
I4572
tp54
sVright side of the six yard box-header-corner
p55
(I6
I36
tp56
sVlong range
p57
(I214
I8083
tp58
sVcentre of the box-header-corner
p59
(I24
I226
tp60
sVlong range-right footed shot-headed pass
p61
(I3
I122
tp62
sVcentre of the box-right footed shot-corner
p63
(I145
I484
tp64
sVcentre of the box
p65
(I22621
I149102
tp66
sVright side of the six yard box-left footed shot-headed pass
p67
(I5
I37
tp68
sVright side of the six yard box-right footed shot-fast break
p69
(I27
I39
tp70
sVright side of the six yard box-right footed shot-cross
p71
(I223
I1107
tp72
sVright side-left footed shot-fast break
p73
(I21
I105
tp74
sVleft side of the six yard box-left footed shot-fast break
p75
(I18
I32
tp76
sVleft side-header-through ball
p77
(I0
I6
tp78
sVleft side of the six yard box-left footed shot-cross
p79
(I143
I637
tp80
sVoutside the box-left footed shot-through ball
p81
(I72
I341
tp82
sVleft side-left footed shot-corner
p83
(I17
I129
tp84
sVlong range-right footed shot-fast break
p85
(I5
I51
tp86
sVright side-header-direct free kick
p87
g14
sVleft side of the six yard box-right footed shot-headed pass
p88
(I24
I98
tp89
sVcentre of the box-right footed shot-through ball
p90
(I1759
I4979
tp91
sVoutside the box-through ball
p92
g14
sVleft footed shot
p93
(I14392
I154686
tp94
sVvery close range-right footed shot-corner
p95
(I182
I222
tp96
sVright footed shot-direct free kick
p97
(I0
I12
tp98
sVcentre of the box-right footed shot-direct free kick
p99
(I0
I6
tp100
sVlong range-left footed shot-direct free kick
p101
(I0
I3
tp102
sVvery close range-left footed shot
p103
(I1128
I1827
tp104
sVleft side of the six yard box-header
p105
(I77
I422
tp106
sVright side-right footed shot-direct free kick
p107
(I0
I2
tp108
sVcentre of the box-corner
p109
(I5
I9
tp110
sVleft side-header
p111
(I15
I401
tp112
sVoutside the box-left footed shot-corner
p113
(I31
I610
tp114
sVleft side of the six yard box-right footed shot-cross
p115
(I100
I609
tp116
sVright side of the six yard box-left footed shot-fast break
p117
(I1
I4
tp118
sVleft side-left footed shot-direct free kick
p119
g14
sVleft side of the six yard box-header-headed pass
p120
(I23
I119
tp121
sVoutside the box-left footed shot-headed pass
p122
(I62
I2236
tp123
sVcentre of the box-cross
p124
(I49
I508
tp125
sVright side of the six yard box-headed pass
p126
(I1
I1
tp127
sVvery close range-left footed shot-corner
p128
(I87
I111
tp129
sVright side of the six yard box-right footed shot-headed pass
p130
(I44
I191
tp131
sVright side-left footed shot-corner
p132
(I12
I140
tp133
sVleft footed shot-fast break
p134
(I19
I93
tp135
sVoutside the box
p136
(I5658
I208818
tp137
sVheader-corner
p138
(I0
I5
tp139
sVleft side of the six yard box-header-fast break
p140
(I0
I3
tp141
sVcentre of the box-through ball
p142
(I0
I2
tp143
sVleft side-left footed shot-headed pass
p144
(I46
I809
tp145
sVcentre of the box-right footed shot-cross
p146
(I1525
I11204
tp147
sVleft side-right footed shot-corner
p148
(I20
I195
tp149
sVright side of the six yard box-cross
p150
(I2
I45
tp151
sVleft side-right footed shot-fast break
p152
(I82
I325
tp153
sVoutside the box-right footed shot-direct free kick
p154
(I2
I350
tp155
sVcentre of the box-left footed shot-headed pass
p156
(I273
I1700
tp157
sVright footed shot
p158
(I26827
I263071
tp159
sVleft side-right footed shot
p160
(I696
I14222
tp161
sVright side of the six yard box-right footed shot-through ball
p162
(I75
I200
tp163
sVcentre of the box-header-cross
p164
(I4765
I52614
tp165
sVright side of the six yard box-header-fast break
p166
(I0
I2
tp167
sVright side of the six yard box-left footed shot
p168
(I97
I420
tp169
sVleft footed shot-direct free kick
p170
(I0
I7
tp171
sVcentre of the box-right footed shot
p172
(I6247
I33501
tp173
sVleft side of the six yard box-right footed shot-through ball
p174
(I27
I81
tp175
sVvery close range-cross
p176
(I47
I138
tp177
sVleft side of the six yard box-left footed shot-corner
p178
(I18
I50
tp179
sVcentre of the box-header-fast break
p180
(I11
I31
tp181
sVleft side-headed pass
p182
g14
sVcentre of the box-left footed shot
p183
(I3683
I21358
tp184
sVright side of the six yard box
p185
(I1520
I7422
tp186
sVoutside the box-header-corner
p187
g14
sVoutside the box-right footed shot-through ball
p188
(I204
I848
tp189
sVleft side-header-headed pass
p190
(I1
I16
tp191
sVright side of the six yard box-right footed shot
p192
(I489
I1841
tp193
sVleft side of the six yard box-header-direct free kick
p194
g14
sVright side of the six yard box-right footed shot-corner
p195
(I22
I54
tp196
sVoutside the box-left footed shot
p197
(I1720
I70504
tp198
sVright side-right footed shot-headed pass
p199
(I67
I1060
tp200
sVright side
p201
(I2645
I39115
tp202
sVright side-header-cross
p203
(I17
I1126
tp204
sVfast break
p205
(I5
I5
tp206
sVright side of the six yard box-left footed shot-direct free kick
p207
g14
sVleft side of the six yard box-right footed shot-corner
p208
(I13
I49
tp209
sVright side-header-headed pass
p210
(I0
I13
tp211
sVcentre of the box-header-headed pass
p212
(I97
I1068
tp213
sVheader-cross
p214
(I21
I988
tp215
sVoutside the box-header-fast break
p216
(I0
I3
tp217
sVright footed shot-fast break
p218
(I24
I104
tp219
sVcentre of the box-header
p220
(I668
I7491
tp221
sVright side of the six yard box-header
p222
(I57
I364
tp223
sVvery close range-left footed shot-fast break
p224
(I35
I40
tp225
sVvery close range-right footed shot
p226
(I1989
I3139
tp227
sVlong range-left footed shot-fast break
p228
(I1
I27
tp229
sVoutside the box-right footed shot-fast break
p230
(I185
I1377
tp231
sVright side of the six yard box-header-direct free kick
p232
g14
sVvery close range-right footed shot-headed pass
p233
(I216
I448
tp234
sVright footed shot-through ball
p235
(I132
I814
tp236
sVoutside the box-left footed shot-fast break
p237
(I92
I740
tp238
sVright side of the six yard box-left footed shot-through ball
p239
(I4
I19
tp240
sVright footed shot-cross
p241
(I36
I744
tp242
sVlong range-left footed shot-through ball
p243
(I4
I17
tp244
sVleft side-left footed shot-through ball
p245
(I411
I2592
tp246
sVleft side-right footed shot-direct free kick
p247
(I1
I5
tp248
sVcentre of the box-header-direct free kick
p249
(I0
I9
tp250
sVright side-right footed shot-corner
p251
(I21
I177
tp252
sVcentre of the box-header-through ball
p253
(I60
I272
tp254
sVvery close range-headed pass
p255
(I15
I26
tp256
sVvery close range-header
p257
(I459
I1004
tp258
sVright side-header
p259
(I8
I379
tp260
sVright side of the six yard box-header-headed pass
p261
(I20
I119
tp262
sVright side-header-corner
p263
(I1
I10
tp264
sVright side of the six yard box-header-cross
p265
(I392
I2701
tp266
sVleft side-left footed shot
p267
(I798
I16016
tp268
sVright side-right footed shot-fast break
p269
(I178
I854
tp270
sVcentre of the box-left footed shot-cross
p271
(I777
I5766
tp272
sVvery close range-header-corner
p273
(I91
I146
tp274
sVleft side of the six yard box-left footed shot-headed pass
p275
(I30
I138
tp276
sVoutside the box-right footed shot-headed pass
p277
(I119
I3794
tp278
sVleft side-header-cross
p279
(I26
I1223
tp280
sVvery close range
p281
(I7358
I14741
tp282
sVleft side-right footed shot-headed pass
p283
(I27
I493
tp284
sVvery close range-header-through ball
p285
(I3
I4
tp286
sVheader-through ball
p287
(I2
I4
tp288
sVleft side-left footed shot-fast break
p289
(I145
I637
tp290
sVoutside the box-left footed shot-cross
p291
(I17
I719
tp292
sVright side-left footed shot-through ball
p293
(I56
I335
tp294
sVcentre of the box-right footed shot-headed pass
p295
(I469
I3050
tp296
sVleft side-header-corner
p297
(I1
I9
tp298
sVright side-left footed shot
p299
(I356
I7760
tp300
sVlong range-right footed shot-through ball
p301
(I4
I24
tp302
sVvery close range-left footed shot-cross
p303
(I349
I689
tp304
sVright side-header-through ball
p305
(I0
I4
tp306
sVoutside the box-header-headed pass
p307
(I0
I5
tp308
sVright side-left footed shot-cross
p309
(I15
I396
tp310
sVlong range-header-cross
p311
g14
sVcentre of the box-headed pass
p312
(I1
I12
tp313
sVoutside the box-header-through ball
p314
(I0
I11
tp315
sVright side-right footed shot-cross
p316
(I78
I1912
tp317
sVright footed shot-headed pass
p318
(I20
I328
tp319
sVright side-right footed shot
p320
(I1203
I21096
tp321
sVvery close range-right footed shot-through ball
p322
(I37
I59
tp323
sVvery close range-header-fast break
p324
(I8
I9
tp325
sVleft side of the six yard box-right footed shot-fast break
p326
(I8
I14
tp327
sVheader
p328
(I9027
I79371
tp329
sVcross
p330
(I0
I9
tp331
sVright side-cross
p332
(I0
I7
tp333
sVleft side of the six yard box
p334
(I1545
I7613
tp335
sVleft side of the six yard box-corner
p336
(I1
I2
tp337
sVvery close range-fast break
p338
(I2
I2
tp339
sVleft side of the six yard box-header-cross
p340
(I383
I2762
tp341
sVright side of the six yard box-corner
p342
(I0
I3
tp343
sVvery close range-right footed shot-cross
p344
(I660
I1290
tp345
sVleft footed shot-corner
p346
(I1
I33
tp347
sVleft side of the six yard box-left footed shot
p348
(I372
I1383
tp349
sVright side-header-fast break
p350
(I0
I3
tp351
sVlong range-left footed shot-corner
p352
(I3
I56
tp353
sVleft side of the six yard box-header-corner
p354
(I16
I59
tp355
sVright side of the six yard box-header-through ball
p356
(I0
I5
tp357
sVleft side of the six yard box-header-through ball
p358
(I2
I5
tp359
sVpenalty-right footed shot
p360
(I3149
I3896
tp361
sS'date'
p362
S'20171111'
p363
sVleft footed shot-through ball
p364
(I80
I568
tp365
sVleft side-left footed shot-cross
p366
(I67
I1465
tp367
sVleft side of the six yard box-right footed shot
p368
(I226
I953
tp369
sVleft side of the six yard box-cross
p370
(I5
I36
tp371
sVvery close range-right footed shot-fast break
p372
(I79
I87
tp373
sVright side of the six yard box-left footed shot-cross
p374
(I48
I211
tp375
sVvery close range-left footed shot-headed pass
p376
(I94
I197
tp377
sVlong range-right footed shot-cross
p378
(I0
I27
tp379
sVlong range-right footed shot
p380
(I125
I4763
tp381
sVheader-headed pass
p382
(I1
I12
tp383
sVleft side
p384
(I2579
I40528
tp385
sVright side of the six yard box-left footed shot-corner
p386
(I5
I13
tp387
sVoutside the box-left footed shot-direct free kick
p388
(I5
I203
tp389
sVcentre of the box-right footed shot-fast break
p390
(I683
I1164
tp391
sVvery close range-header-headed pass
p392
(I244
I558
tp393
sVlong range-right footed shot-corner
p394
(I9
I101
tp395
sVoutside the box-right footed shot-cross
p396
(I29
I1258
tp397
sVlong range-left footed shot-headed pass
p398
(I2
I61
tp399
sVoutside the box-right footed shot
p400
(I3038
I124186
tp401
sVright footed shot-corner
p402
(I3
I58
tp403
s.