(dp0
S''
p1
(I725
I745
tp2
sVleft side-cross
p3
(I0
I8
tp4
sVpenalty-left footed shot
p5
(I879
I1075
tp6
sVleft footed shot-headed pass
p7
(I9
I203
tp8
sVright side-left footed shot-headed pass
p9
(I11
I253
tp10
sVleft side of the six yard box-headed pass
p11
(I1
I4
tp12
sVright side-right footed shot-fast break
p13
(I178
I854
tp14
sVright side-header-corner
p15
(I1
I10
tp16
sVleft side-header-direct free kick
p17
(I0
I2
tp18
sVvery close range-left footed shot-through ball
p19
(I33
I45
tp20
sVvery close range-corner
p21
(I18
I18
tp22
sVleft side-right footed shot-cross
p23
(I42
I963
tp24
sVright side-right footed shot-through ball
p25
(I600
I3473
tp26
sVcentre of the box-left footed shot-fast break
p27
(I360
I622
tp28
sVleft side-right footed shot-through ball
p29
(I183
I1005
tp30
sVcorner
p31
(I485
I492
tp32
sVleft footed shot-cross
p33
(I22
I442
tp34
sVlong range-right footed shot-direct free kick
p35
(I0
I9
tp36
sVright side-cross
p37
(I0
I7
tp38
sVlong range-left footed shot-cross
p39
(I1
I28
tp40
sVoutside the box-header-cross
p41
(I2
I135
tp42
sVoutside the box-right footed shot-corner
p43
(I67
I1230
tp44
sVoutside the box-header
p45
(I7
I246
tp46
sVcentre of the box-left footed shot-through ball
p47
(I890
I2590
tp48
sVpenalty
p49
(I4028
I4966
tp50
sVright side-left footed shot-direct free kick
p51
(I0
I1
tp52
sVcentre of the box-left footed shot-corner
p53
(I80
I296
tp54
sVvery close range-header-cross
p55
(I1508
I4571
tp56
sVright side of the six yard box-header-corner
p57
(I6
I36
tp58
sVlong range
p59
(I214
I8078
tp60
sVcross
p61
(I0
I9
tp62
sVlong range-right footed shot-headed pass
p63
(I3
I121
tp64
sVcentre of the box-right footed shot-corner
p65
(I145
I484
tp66
sVcentre of the box
p67
(I22601
I148998
tp68
sVright side of the six yard box-left footed shot-headed pass
p69
(I5
I37
tp70
sVright side of the six yard box-right footed shot-fast break
p71
(I27
I39
tp72
sVright side of the six yard box-right footed shot-cross
p73
(I223
I1106
tp74
sVright side of the six yard box-left footed shot-through ball
p75
(I4
I19
tp76
sVright side-left footed shot-fast break
p77
(I21
I105
tp78
sVleft side of the six yard box-left footed shot-fast break
p79
(I18
I32
tp80
sVleft side-header-through ball
p81
(I0
I6
tp82
sVleft side of the six yard box-left footed shot-cross
p83
(I143
I636
tp84
sVoutside the box-left footed shot-through ball
p85
(I72
I341
tp86
sVlong range-right footed shot-through ball
p87
(I4
I24
tp88
sVlong range-right footed shot-fast break
p89
(I5
I51
tp90
sVright side-left footed shot
p91
(I356
I7753
tp92
sVleft side of the six yard box-right footed shot-headed pass
p93
(I24
I98
tp94
sVoutside the box-left footed shot-headed pass
p95
(I62
I2234
tp96
sVoutside the box-through ball
p97
g52
sVright side of the six yard box-cross
p98
(I2
I45
tp99
sVleft footed shot
p100
(I14382
I154582
tp101
sVvery close range-right footed shot-corner
p102
(I182
I222
tp103
sVright footed shot-direct free kick
p104
(I0
I12
tp105
sVcentre of the box-right footed shot-direct free kick
p106
(I0
I6
tp107
sVlong range-left footed shot-direct free kick
p108
(I0
I3
tp109
sVvery close range-left footed shot
p110
(I1126
I1825
tp111
sVleft side of the six yard box-header
p112
(I77
I422
tp113
sVright side-right footed shot-direct free kick
p114
(I0
I2
tp115
sVheader-through ball
p116
(I2
I4
tp117
sVcentre of the box-corner
p118
(I5
I9
tp119
sVleft side-header
p120
(I15
I401
tp121
sVoutside the box-left footed shot-corner
p122
(I31
I609
tp123
sVleft side of the six yard box-right footed shot-cross
p124
(I100
I608
tp125
sVright side of the six yard box-left footed shot-fast break
p126
(I1
I4
tp127
sVleft side-left footed shot-direct free kick
p128
g52
sVleft side of the six yard box-header-headed pass
p129
(I22
I118
tp130
sVcentre of the box-right footed shot-through ball
p131
(I1758
I4973
tp132
sVcentre of the box-cross
p133
(I49
I507
tp134
sVright side of the six yard box-headed pass
p135
(I1
I1
tp136
sVvery close range-left footed shot-corner
p137
(I87
I111
tp138
sVright side of the six yard box-right footed shot-headed pass
p139
(I44
I191
tp140
sVright side-left footed shot-corner
p141
(I12
I140
tp142
sVleft footed shot-fast break
p143
(I19
I93
tp144
sVoutside the box
p145
(I5655
I208679
tp146
sVheader-corner
p147
(I0
I5
tp148
sVleft side of the six yard box-header-fast break
p149
(I0
I3
tp150
sVcentre of the box-through ball
p151
(I0
I2
tp152
sVleft side-left footed shot-headed pass
p153
(I46
I808
tp154
sVcentre of the box-right footed shot-cross
p155
(I1524
I11197
tp156
sVleft side-right footed shot-corner
p157
(I20
I195
tp158
sVleft side of the six yard box-header-corner
p159
(I16
I59
tp160
sVleft side-right footed shot-fast break
p161
(I82
I325
tp162
sVoutside the box-right footed shot-direct free kick
p163
(I2
I350
tp164
sVcentre of the box-left footed shot-headed pass
p165
(I273
I1700
tp166
sVright footed shot
p167
(I26799
I262875
tp168
sVleft side-right footed shot
p169
(I689
I14200
tp170
sVright side of the six yard box-right footed shot-through ball
p171
(I74
I199
tp172
sVcentre of the box-header-cross
p173
(I4760
I52581
tp174
sVright side of the six yard box-header-fast break
p175
(I0
I2
tp176
sVright side of the six yard box-left footed shot
p177
(I97
I420
tp178
sVright side-header-direct free kick
p179
g52
sVleft footed shot-direct free kick
p180
(I0
I7
tp181
sVright side of the six yard box-header
p182
(I56
I363
tp183
sVleft side of the six yard box-right footed shot-through ball
p184
(I27
I81
tp185
sVvery close range-cross
p186
(I47
I138
tp187
sVleft side of the six yard box-left footed shot-corner
p188
(I18
I50
tp189
sVcentre of the box-header-fast break
p190
(I11
I31
tp191
sVleft side-headed pass
p192
g52
sVcentre of the box-left footed shot
p193
(I3681
I21344
tp194
sVright side of the six yard box
p195
(I1518
I7412
tp196
sVoutside the box-header-corner
p197
g52
sVoutside the box-right footed shot-through ball
p198
(I204
I848
tp199
sVleft side-header-headed pass
p200
(I1
I16
tp201
sVright side of the six yard box-left footed shot-direct free kick
p202
g52
sVright side of the six yard box-right footed shot
p203
(I489
I1840
tp204
sVleft side of the six yard box-header-direct free kick
p205
g52
sVright side of the six yard box-right footed shot-corner
p206
(I22
I53
tp207
sVoutside the box-left footed shot
p208
(I1719
I70458
tp209
sVright side-right footed shot-headed pass
p210
(I67
I1060
tp211
sVright side
p212
(I2643
I39081
tp213
sVright side-header-cross
p214
(I17
I1123
tp215
sVfast break
p216
(I5
I5
tp217
sVheader
p218
(I9020
I79314
tp219
sVleft side of the six yard box-right footed shot-corner
p220
(I13
I49
tp221
sVright side-header-headed pass
p222
(I0
I13
tp223
sVcentre of the box-header-headed pass
p224
(I97
I1068
tp225
sVheader-cross
p226
(I21
I987
tp227
sVoutside the box-header-fast break
p228
(I0
I3
tp229
sVright footed shot-fast break
p230
(I24
I104
tp231
sVcentre of the box-header
p232
(I668
I7480
tp233
sVcentre of the box-right footed shot
p234
(I6237
I33472
tp235
sVvery close range-left footed shot-fast break
p236
(I35
I40
tp237
sVvery close range-right footed shot
p238
(I1988
I3138
tp239
sVlong range-left footed shot-fast break
p240
(I1
I27
tp241
sVoutside the box-right footed shot-fast break
p242
(I185
I1377
tp243
sVright side of the six yard box-header-direct free kick
p244
g52
sVvery close range-right footed shot-headed pass
p245
(I216
I448
tp246
sVright footed shot-through ball
p247
(I132
I814
tp248
sVoutside the box-left footed shot-fast break
p249
(I92
I740
tp250
sVvery close range-headed pass
p251
(I15
I26
tp252
sVright footed shot-cross
p253
(I36
I743
tp254
sVlong range-left footed shot-through ball
p255
(I4
I17
tp256
sVleft side-left footed shot-through ball
p257
(I411
I2591
tp258
sVleft side-right footed shot-direct free kick
p259
(I1
I5
tp260
sVleft side-header-cross
p261
(I26
I1223
tp262
sVright side-right footed shot-corner
p263
(I21
I176
tp264
sVcentre of the box-header-through ball
p265
(I60
I272
tp266
sVright side-header
p267
(I8
I379
tp268
sVright side of the six yard box-header-headed pass
p269
(I20
I119
tp270
sVlong range-left footed shot
p271
(I57
I2789
tp272
sVleft side-left footed shot
p273
(I798
I16005
tp274
sVright side of the six yard box-header-cross
p275
(I392
I2697
tp276
sVcentre of the box-left footed shot-cross
p277
(I777
I5766
tp278
sVleft side of the six yard box-left footed shot-headed pass
p279
(I30
I138
tp280
sVoutside the box-right footed shot-headed pass
p281
(I119
I3792
tp282
sVright side of the six yard box-left footed shot-cross
p283
(I48
I210
tp284
sVleft side-right footed shot-headed pass
p285
(I27
I493
tp286
sVvery close range-header-through ball
p287
(I3
I4
tp288
sVright side-header-through ball
p289
(I0
I4
tp290
sVright side of the six yard box-header-through ball
p291
(I0
I5
tp292
sVleft side-left footed shot-fast break
p293
(I145
I637
tp294
sVoutside the box-left footed shot-cross
p295
(I17
I717
tp296
sVright side-left footed shot-through ball
p297
(I56
I335
tp298
sVcentre of the box-right footed shot-headed pass
p299
(I469
I3050
tp300
sVleft side-header-corner
p301
(I1
I9
tp302
sVleft side-left footed shot-cross
p303
(I67
I1465
tp304
sVlong range-header-cross
p305
g52
sVvery close range-header-corner
p306
(I91
I146
tp307
sVvery close range-left footed shot-cross
p308
(I348
I688
tp309
sVleft footed shot-through ball
p310
(I80
I568
tp311
sVoutside the box-header-headed pass
p312
(I0
I5
tp313
sVright side-left footed shot-cross
p314
(I15
I396
tp315
sVleft footed shot-corner
p316
(I1
I33
tp317
sVcentre of the box-headed pass
p318
(I1
I12
tp319
sVoutside the box-header-through ball
p320
(I0
I11
tp321
sVright side-right footed shot-cross
p322
(I78
I1912
tp323
sVright footed shot-headed pass
p324
(I20
I328
tp325
sVright side-right footed shot
p326
(I1201
I21077
tp327
sS'date'
p328
S'20171107'
p329
sVvery close range-right footed shot-through ball
p330
(I37
I59
tp331
sVvery close range-header-fast break
p332
(I8
I9
tp333
sVleft side of the six yard box-right footed shot-fast break
p334
(I8
I14
tp335
sVcentre of the box-header-corner
p336
(I24
I226
tp337
sVleft side of the six yard box-left footed shot-through ball
p338
(I53
I141
tp339
sVleft side of the six yard box
p340
(I1543
I7606
tp341
sVleft side of the six yard box-corner
p342
(I1
I2
tp343
sVvery close range-fast break
p344
(I2
I2
tp345
sVleft side of the six yard box-header-cross
p346
(I383
I2761
tp347
sVright side of the six yard box-corner
p348
(I0
I3
tp349
sVvery close range-right footed shot-cross
p350
(I659
I1289
tp351
sVcentre of the box-header-direct free kick
p352
(I0
I9
tp353
sVcentre of the box-right footed shot-fast break
p354
(I683
I1164
tp355
sVright side-header-fast break
p356
(I0
I3
tp357
sVlong range-left footed shot-corner
p358
(I3
I56
tp359
sVleft side-left footed shot-corner
p360
(I17
I129
tp361
sVleft side of the six yard box-header-through ball
p362
(I2
I5
tp363
sVpenalty-right footed shot
p364
(I3149
I3891
tp365
sVvery close range-header
p366
(I459
I1004
tp367
sVlong range-right footed shot-corner
p368
(I9
I101
tp369
sVleft side of the six yard box-cross
p370
(I5
I36
tp371
sVvery close range-right footed shot-fast break
p372
(I78
I86
tp373
sVvery close range
p374
(I7352
I14734
tp375
sVlong range-left footed shot-headed pass
p376
(I2
I61
tp377
sVlong range-right footed shot-cross
p378
(I0
I27
tp379
sVlong range-right footed shot
p380
(I125
I4761
tp381
sVheader-headed pass
p382
(I1
I12
tp383
sVleft side
p384
(I2572
I40492
tp385
sVright side of the six yard box-left footed shot-corner
p386
(I5
I13
tp387
sVoutside the box-left footed shot-direct free kick
p388
(I5
I203
tp389
sVleft side of the six yard box-left footed shot
p390
(I371
I1381
tp391
sVvery close range-header-headed pass
p392
(I244
I558
tp393
sVleft side of the six yard box-right footed shot
p394
(I226
I952
tp395
sVright footed shot-corner
p396
(I3
I58
tp397
sVvery close range-left footed shot-headed pass
p398
(I94
I197
tp399
sVoutside the box-right footed shot
p400
(I3036
I124101
tp401
sVoutside the box-right footed shot-cross
p402
(I29
I1258
tp403
s.