(dp0
S''
p1
(I2157
I2217
tp2
sVleft side-cross
p3
(I0
I24
tp4
sVpenalty-left footed shot
p5
(I2604
I3183
tp6
sVleft footed shot-headed pass
p7
(I27
I606
tp8
sVright side-left footed shot-headed pass
p9
(I33
I750
tp10
sVleft side of the six yard box-headed pass
p11
(I3
I12
tp12
sVright side-left footed shot-direct free kick
p13
(I0
I3
tp14
sVright side-header-corner
p15
(I3
I30
tp16
sVleft side-header-direct free kick
p17
(I0
I6
tp18
sVvery close range-left footed shot-through ball
p19
(I99
I135
tp20
sVvery close range-corner
p21
(I51
I51
tp22
sVleft side-right footed shot-cross
p23
(I126
I2865
tp24
sVright side-right footed shot-through ball
p25
(I1791
I10347
tp26
sVcentre of the box-left footed shot-fast break
p27
(I1062
I1839
tp28
sVleft side-right footed shot-through ball
p29
(I549
I3003
tp30
sVcorner
p31
(I1428
I1449
tp32
sVleft footed shot-cross
p33
(I63
I1311
tp34
sVlong range-right footed shot-direct free kick
p35
(I0
I27
tp36
sVright side-cross
p37
(I0
I21
tp38
sVlong range-left footed shot-cross
p39
(I3
I84
tp40
sVoutside the box-header-cross
p41
(I6
I405
tp42
sVoutside the box-right footed shot-corner
p43
(I192
I3624
tp44
sVoutside the box-header
p45
(I21
I732
tp46
sVcentre of the box-left footed shot-through ball
p47
(I2646
I7716
tp48
sVcentre of the box-left footed shot-corner
p49
(I240
I879
tp50
sVvery close range-header-cross
p51
(I4488
I13620
tp52
sVright side of the six yard box-header-corner
p53
(I18
I108
tp54
sVlong range
p55
(I0
I6
tp56
sVcross
p57
(I0
I27
tp58
sVlong range-right footed shot-headed pass
p59
(I9
I360
tp60
sVleft side of the six yard box-header-corner
p61
(I48
I177
tp62
sVcentre of the box-right footed shot-corner
p63
(I426
I1431
tp64
sVcentre of the box
p65
(I147
I408
tp66
sVright side of the six yard box-left footed shot-headed pass
p67
(I15
I111
tp68
sVright side of the six yard box-right footed shot-fast break
p69
(I81
I117
tp70
sVright side of the six yard box-right footed shot-cross
p71
(I666
I3294
tp72
sVright side-left footed shot-fast break
p73
(I60
I312
tp74
sVleft side of the six yard box-left footed shot-fast break
p75
(I54
I96
tp76
sVleft side-header-through ball
p77
(I0
I18
tp78
sVleft side of the six yard box-left footed shot-cross
p79
(I423
I1878
tp80
sVoutside the box-left footed shot-through ball
p81
(I213
I1017
tp82
sVlong range-right footed shot-through ball
p83
(I12
I69
tp84
sVlong range-right footed shot-fast break
p85
(I15
I153
tp86
sVright side of the six yard box-left footed shot-direct free kick
p87
(I0
I3
tp88
sVleft side of the six yard box-right footed shot-headed pass
p89
(I72
I288
tp90
sVcentre of the box-right footed shot-through ball
p91
(I5235
I14814
tp92
sVoutside the box-through ball
p93
(I0
I3
tp94
sVleft footed shot
p95
(I2295
I14736
tp96
sVvery close range-right footed shot-corner
p97
(I540
I657
tp98
sVright footed shot-direct free kick
p99
(I0
I36
tp100
sVcentre of the box-right footed shot-direct free kick
p101
(I0
I18
tp102
sVlong range-left footed shot-direct free kick
p103
(I0
I9
tp104
sVvery close range-left footed shot
p105
(I3348
I5418
tp106
sVleft side of the six yard box-header
p107
(I225
I1242
tp108
sVright side-right footed shot-direct free kick
p109
(I0
I6
tp110
sVcentre of the box-corner
p111
(I15
I27
tp112
sVleft side-header
p113
(I42
I1194
tp114
sVoutside the box-left footed shot-corner
p115
(I93
I1806
tp116
sVleft side of the six yard box-right footed shot-cross
p117
(I300
I1815
tp118
sVright side of the six yard box-left footed shot-fast break
p119
(I3
I12
tp120
sVleft side-left footed shot-direct free kick
p121
(I0
I3
tp122
sVleft side of the six yard box-header-headed pass
p123
(I66
I348
tp124
sVoutside the box-left footed shot-headed pass
p125
(I186
I6648
tp126
sVcentre of the box-cross
p127
(I141
I1485
tp128
sVright side of the six yard box-headed pass
p129
(I3
I3
tp130
sVvery close range-left footed shot-corner
p131
(I258
I327
tp132
sVright side of the six yard box-right footed shot-headed pass
p133
(I132
I567
tp134
sVright side-left footed shot-corner
p135
(I36
I417
tp136
sVleft footed shot-fast break
p137
(I57
I276
tp138
sVoutside the box
p139
(I18
I57
tp140
sVheader-corner
p141
(I0
I15
tp142
sVleft side of the six yard box-header-fast break
p143
(I0
I9
tp144
sVcentre of the box-through ball
p145
(I0
I6
tp146
sVleft side-left footed shot-headed pass
p147
(I138
I2391
tp148
sVcentre of the box-right footed shot-cross
p149
(I4536
I33312
tp150
sVleft side-right footed shot-corner
p151
(I60
I582
tp152
sVright side of the six yard box-cross
p153
(I6
I135
tp154
sVleft side-right footed shot-fast break
p155
(I246
I975
tp156
sVoutside the box-right footed shot-direct free kick
p157
(I6
I1047
tp158
sVcentre of the box-left footed shot-headed pass
p159
(I801
I5040
tp160
sVright footed shot
p161
(I3582
I24759
tp162
sVleft side-right footed shot
p163
(I2040
I42102
tp164
sVright side of the six yard box-right footed shot-through ball
p165
(I219
I591
tp166
sVcentre of the box-header-cross
p167
(I14127
I156150
tp168
sVright side of the six yard box-header-fast break
p169
(I0
I6
tp170
sVright side of the six yard box-left footed shot
p171
(I291
I1224
tp172
sVleft footed shot-direct free kick
p173
(I0
I21
tp174
sVright side of the six yard box-header
p175
(I168
I1074
tp176
sVleft side of the six yard box-right footed shot-through ball
p177
(I81
I237
tp178
sVvery close range-cross
p179
(I141
I411
tp180
sVleft side of the six yard box-left footed shot-corner
p181
(I51
I147
tp182
sVcentre of the box-header-fast break
p183
(I33
I93
tp184
sVleft side-headed pass
p185
(I0
I3
tp186
sVcentre of the box-left footed shot
p187
(I10902
I63252
tp188
sVright side of the six yard box
p189
(I6
I24
tp190
sVoutside the box-header-corner
p191
(I0
I3
tp192
sVoutside the box-right footed shot-through ball
p193
(I606
I2523
tp194
sVleft side-header-headed pass
p195
(I3
I48
tp196
sVright side of the six yard box-right footed shot
p197
(I1455
I5451
tp198
sVleft side of the six yard box-header-direct free kick
p199
(I0
I3
tp200
sVright side of the six yard box-right footed shot-corner
p201
(I66
I159
tp202
sVoutside the box-left footed shot
p203
(I5094
I209148
tp204
sVright side-right footed shot-headed pass
p205
(I201
I3150
tp206
sVright side
p207
(I3
I12
tp208
sVright side-header-cross
p209
(I51
I3357
tp210
sVright side-header-direct free kick
p211
(I0
I3
tp212
sVright side-right footed shot-fast break
p213
(I522
I2535
tp214
sVleft side of the six yard box-right footed shot-corner
p215
(I39
I147
tp216
sVright side-header-headed pass
p217
(I0
I39
tp218
sVcentre of the box-header-headed pass
p219
(I291
I3180
tp220
sVheader-cross
p221
(I60
I2928
tp222
sVoutside the box-header-fast break
p223
(I0
I9
tp224
sVright footed shot-fast break
p225
(I72
I306
tp226
sVcentre of the box-header
p227
(I1974
I22185
tp228
sVcentre of the box-right footed shot
p229
(I18537
I99399
tp230
sVvery close range-left footed shot-fast break
p231
(I105
I120
tp232
sVvery close range-right footed shot
p233
(I5931
I9357
tp234
sVlong range-left footed shot-fast break
p235
(I3
I81
tp236
sVoutside the box-right footed shot-fast break
p237
(I555
I4125
tp238
sVvery close range-right footed shot-headed pass
p239
(I639
I1326
tp240
sVright footed shot-through ball
p241
(I396
I2433
tp242
sVoutside the box-left footed shot-fast break
p243
(I273
I2211
tp244
sVright side of the six yard box-left footed shot-through ball
p245
(I12
I57
tp246
sVright footed shot-cross
p247
(I108
I2217
tp248
sVlong range-left footed shot-through ball
p249
(I12
I51
tp250
sVleft side-left footed shot-through ball
p251
(I1230
I7746
tp252
sVleft side-right footed shot-direct free kick
p253
(I3
I15
tp254
sVcentre of the box-header-direct free kick
p255
(I0
I27
tp256
sVright side-right footed shot-corner
p257
(I63
I519
tp258
sVcentre of the box-header-through ball
p259
(I180
I813
tp260
sVvery close range-headed pass
p261
(I39
I69
tp262
sVleft footed shot-corner
p263
(I3
I99
tp264
sVright side-header
p265
(I24
I1113
tp266
sVright side of the six yard box-header-headed pass
p267
(I60
I354
tp268
sVlong range-left footed shot
p269
(I168
I8322
tp270
sVright side of the six yard box-header-cross
p271
(I1173
I8028
tp272
sVleft side-left footed shot
p273
(I2358
I47505
tp274
sVright side of the six yard box-header-direct free kick
p275
(I0
I3
tp276
sVcentre of the box-left footed shot-cross
p277
(I2313
I17151
tp278
sVvery close range-header-corner
p279
(I273
I438
tp280
sVleft side of the six yard box-left footed shot-headed pass
p281
(I87
I411
tp282
sVoutside the box-right footed shot-headed pass
p283
(I351
I11286
tp284
sVright side of the six yard box-left footed shot-cross
p285
(I144
I630
tp286
sVleft side-right footed shot-headed pass
p287
(I81
I1470
tp288
sVvery close range-header-through ball
p289
(I9
I12
tp290
sVheader-through ball
p291
(I6
I12
tp292
sVleft side-left footed shot-fast break
p293
(I432
I1893
tp294
sVoutside the box-left footed shot-cross
p295
(I51
I2127
tp296
sVright side-left footed shot-through ball
p297
(I165
I1002
tp298
sVcentre of the box-right footed shot-headed pass
p299
(I1392
I9078
tp300
sVleft side-header-corner
p301
(I3
I27
tp302
sVright side-left footed shot
p303
(I1047
I22983
tp304
sVfast break
p305
(I15
I15
tp306
sVvery close range-left footed shot-cross
p307
(I1038
I2046
tp308
sVright side-header-through ball
p309
(I0
I12
tp310
sVoutside the box-header-headed pass
p311
(I0
I15
tp312
sVright side-left footed shot-cross
p313
(I45
I1179
tp314
sVlong range-header-cross
p315
(I0
I3
tp316
sVcentre of the box-headed pass
p317
(I3
I36
tp318
sVoutside the box-header-through ball
p319
(I0
I33
tp320
sVright side-right footed shot-cross
p321
(I231
I5706
tp322
sVright footed shot-headed pass
p323
(I60
I972
tp324
sVright side-right footed shot
p325
(I3564
I62664
tp326
sS'date'
p327
S'20171022'
p328
sVvery close range-right footed shot-through ball
p329
(I108
I171
tp330
sVvery close range-header-fast break
p331
(I24
I27
tp332
sVleft side of the six yard box-right footed shot-fast break
p333
(I24
I39
tp334
sVheader
p335
(I33
I486
tp336
sVcentre of the box-header-corner
p337
(I72
I675
tp338
sVleft side of the six yard box-left footed shot-through ball
p339
(I156
I411
tp340
sVleft side of the six yard box
p341
(I15
I45
tp342
sVleft side of the six yard box-corner
p343
(I3
I6
tp344
sVvery close range-fast break
p345
(I6
I6
tp346
sVleft side of the six yard box-header-cross
p347
(I1143
I8217
tp348
sVright side of the six yard box-corner
p349
(I0
I6
tp350
sVvery close range-right footed shot-cross
p351
(I1959
I3825
tp352
sVleft side-header-cross
p353
(I78
I3621
tp354
sVcentre of the box-right footed shot-fast break
p355
(I2034
I3468
tp356
sVright side-header-fast break
p357
(I0
I9
tp358
sVlong range-left footed shot-corner
p359
(I9
I162
tp360
sVleft side-left footed shot-corner
p361
(I51
I381
tp362
sVright side of the six yard box-header-through ball
p363
(I0
I15
tp364
sVleft side of the six yard box-header-through ball
p365
(I6
I15
tp366
sVpenalty-right footed shot
p367
(I9348
I11562
tp368
sVvery close range-header
p369
(I1356
I2979
tp370
sVleft footed shot-through ball
p371
(I240
I1698
tp372
sVleft side-left footed shot-cross
p373
(I195
I4356
tp374
sVlong range-right footed shot-corner
p375
(I27
I303
tp376
sVleft side of the six yard box-cross
p377
(I15
I108
tp378
sVvery close range-right footed shot-fast break
p379
(I228
I252
tp380
sVvery close range
p381
(I222
I330
tp382
sVlong range-left footed shot-headed pass
p383
(I6
I177
tp384
sVlong range-right footed shot-cross
p385
(I0
I81
tp386
sVlong range-right footed shot
p387
(I369
I14190
tp388
sVheader-headed pass
p389
(I3
I36
tp390
sVleft side
p391
(I3
I12
tp392
sVright side of the six yard box-left footed shot-corner
p393
(I15
I39
tp394
sVoutside the box-left footed shot-direct free kick
p395
(I15
I606
tp396
sVleft side of the six yard box-left footed shot
p397
(I1107
I4107
tp398
sVvery close range-header-headed pass
p399
(I726
I1662
tp400
sVleft side of the six yard box-right footed shot
p401
(I669
I2823
tp402
sVright footed shot-corner
p403
(I9
I174
tp404
sVvery close range-left footed shot-headed pass
p405
(I276
I582
tp406
sVoutside the box-right footed shot
p407
(I9048
I369333
tp408
sVoutside the box-right footed shot-cross
p409
(I87
I3756
tp410
s.