(dp0
S''
p1
(I726
I746
tp2
sVleft side-cross
p3
(I0
I9
tp4
sVpenalty-left footed shot
p5
(I881
I1077
tp6
sVleft footed shot-headed pass
p7
(I9
I203
tp8
sVright side-left footed shot-headed pass
p9
(I11
I254
tp10
sVleft side of the six yard box-headed pass
p11
(I1
I4
tp12
sVright side-left footed shot-direct free kick
p13
(I0
I1
tp14
sVlong range-left footed shot
p15
(I57
I2791
tp16
sVleft side-header-direct free kick
p17
(I0
I2
tp18
sVvery close range-left footed shot-through ball
p19
(I33
I45
tp20
sVvery close range-corner
p21
(I18
I18
tp22
sVleft side-right footed shot-cross
p23
(I42
I963
tp24
sVright side-right footed shot-through ball
p25
(I600
I3476
tp26
sVcentre of the box-left footed shot-fast break
p27
(I360
I622
tp28
sVleft side-right footed shot-through ball
p29
(I183
I1005
tp30
sVcorner
p31
(I485
I492
tp32
sVleft footed shot-cross
p33
(I22
I442
tp34
sVlong range-right footed shot-direct free kick
p35
(I0
I9
tp36
sVleft side of the six yard box-left footed shot-through ball
p37
(I53
I141
tp38
sVlong range-left footed shot-cross
p39
(I1
I28
tp40
sVoutside the box-header-cross
p41
(I2
I135
tp42
sVoutside the box-right footed shot-corner
p43
(I67
I1230
tp44
sVoutside the box-header
p45
(I7
I247
tp46
sVcentre of the box-header-direct free kick
p47
(I0
I9
tp48
sVcentre of the box-left footed shot-through ball
p49
(I891
I2593
tp50
sVpenalty
p51
(I4030
I4973
tp52
sVcentre of the box-left footed shot-corner
p53
(I80
I296
tp54
sVvery close range-header-cross
p55
(I1508
I4572
tp56
sVright side of the six yard box-header-corner
p57
(I6
I36
tp58
sVlong range
p59
(I214
I8083
tp60
sVcentre of the box-header-corner
p61
(I24
I226
tp62
sVlong range-right footed shot-headed pass
p63
(I3
I122
tp64
sVcentre of the box-right footed shot-corner
p65
(I145
I484
tp66
sVcentre of the box
p67
(I22621
I149102
tp68
sVright side of the six yard box-left footed shot-headed pass
p69
(I5
I37
tp70
sVright side of the six yard box-right footed shot-fast break
p71
(I27
I39
tp72
sVright side of the six yard box-right footed shot-cross
p73
(I223
I1107
tp74
sVright side-left footed shot-fast break
p75
(I21
I105
tp76
sVleft side of the six yard box-left footed shot-fast break
p77
(I18
I32
tp78
sVleft side-header-through ball
p79
(I0
I6
tp80
sVleft side of the six yard box-left footed shot-cross
p81
(I143
I637
tp82
sVoutside the box-left footed shot-through ball
p83
(I72
I341
tp84
sVleft side-left footed shot-corner
p85
(I17
I129
tp86
sVlong range-right footed shot-fast break
p87
(I5
I51
tp88
sVright side-header-direct free kick
p89
g14
sVleft side of the six yard box-right footed shot-headed pass
p90
(I24
I98
tp91
sVcentre of the box-right footed shot-through ball
p92
(I1759
I4979
tp93
sVoutside the box-through ball
p94
g14
sVleft footed shot
p95
(I14392
I154686
tp96
sVvery close range-right footed shot-corner
p97
(I182
I222
tp98
sVright footed shot-direct free kick
p99
(I0
I12
tp100
sVcentre of the box-right footed shot-direct free kick
p101
(I0
I6
tp102
sVlong range-left footed shot-direct free kick
p103
(I0
I3
tp104
sVvery close range-left footed shot
p105
(I1128
I1827
tp106
sVleft side of the six yard box-header
p107
(I77
I422
tp108
sVright side-right footed shot-direct free kick
p109
(I0
I2
tp110
sVcentre of the box-corner
p111
(I5
I9
tp112
sVleft side-header
p113
(I15
I401
tp114
sVoutside the box-left footed shot-corner
p115
(I31
I610
tp116
sVleft side of the six yard box-right footed shot-cross
p117
(I100
I609
tp118
sVright side of the six yard box-left footed shot-fast break
p119
(I1
I4
tp120
sVleft side-left footed shot-direct free kick
p121
g14
sVleft side of the six yard box-header-headed pass
p122
(I23
I119
tp123
sVoutside the box-left footed shot-headed pass
p124
(I62
I2236
tp125
sVcentre of the box-cross
p126
(I49
I508
tp127
sVright side of the six yard box-headed pass
p128
(I1
I1
tp129
sVvery close range-left footed shot-corner
p130
(I87
I111
tp131
sVright side of the six yard box-right footed shot-headed pass
p132
(I44
I191
tp133
sVright side-left footed shot-corner
p134
(I12
I140
tp135
sVleft footed shot-fast break
p136
(I19
I93
tp137
sVoutside the box
p138
(I5658
I208818
tp139
sVheader-corner
p140
(I0
I5
tp141
sVleft side of the six yard box-header-fast break
p142
(I0
I3
tp143
sVcentre of the box-through ball
p144
(I0
I2
tp145
sVleft side-left footed shot-headed pass
p146
(I46
I809
tp147
sVcentre of the box-right footed shot-cross
p148
(I1525
I11204
tp149
sVleft side-right footed shot-corner
p150
(I20
I195
tp151
sVright side of the six yard box-cross
p152
(I2
I45
tp153
sVleft side-right footed shot-fast break
p154
(I82
I325
tp155
sVoutside the box-right footed shot-direct free kick
p156
(I2
I350
tp157
sVcentre of the box-left footed shot-headed pass
p158
(I273
I1700
tp159
sVright footed shot
p160
(I26827
I263071
tp161
sVleft side-right footed shot
p162
(I696
I14222
tp163
sVright side of the six yard box-right footed shot-through ball
p164
(I75
I200
tp165
sVcentre of the box-header-cross
p166
(I4765
I52614
tp167
sVright side of the six yard box-header-fast break
p168
(I0
I2
tp169
sVright side of the six yard box-left footed shot
p170
(I97
I420
tp171
sVleft footed shot-direct free kick
p172
(I0
I7
tp173
sVcentre of the box-right footed shot
p174
(I6247
I33501
tp175
sVleft side of the six yard box-right footed shot-through ball
p176
(I27
I81
tp177
sVvery close range-cross
p178
(I47
I138
tp179
sVleft side of the six yard box-left footed shot-corner
p180
(I18
I50
tp181
sVcentre of the box-header-fast break
p182
(I11
I31
tp183
sVleft side-headed pass
p184
g14
sVcentre of the box-left footed shot
p185
(I3683
I21358
tp186
sVright side of the six yard box
p187
(I1520
I7422
tp188
sVoutside the box-header-corner
p189
g14
sVoutside the box-right footed shot-through ball
p190
(I204
I848
tp191
sVleft side-header-headed pass
p192
(I1
I16
tp193
sVright side of the six yard box-left footed shot-direct free kick
p194
g14
sVright side of the six yard box-right footed shot
p195
(I489
I1841
tp196
sVleft side of the six yard box-header-direct free kick
p197
g14
sVright side of the six yard box-right footed shot-corner
p198
(I22
I54
tp199
sVoutside the box-left footed shot
p200
(I1720
I70504
tp201
sVright side-right footed shot-headed pass
p202
(I67
I1060
tp203
sVright side
p204
(I2645
I39115
tp205
sVright side-header-cross
p206
(I17
I1126
tp207
sVfast break
p208
(I5
I5
tp209
sVright side-left footed shot
p210
(I356
I7760
tp211
sVleft side of the six yard box-right footed shot-corner
p212
(I13
I49
tp213
sVright side-header-headed pass
p214
(I0
I13
tp215
sVcentre of the box-header-headed pass
p216
(I97
I1068
tp217
sVheader-cross
p218
(I21
I988
tp219
sVoutside the box-header-fast break
p220
(I0
I3
tp221
sVright footed shot-fast break
p222
(I24
I104
tp223
sVcentre of the box-header
p224
(I668
I7491
tp225
sVright side of the six yard box-header
p226
(I57
I364
tp227
sVvery close range-left footed shot-fast break
p228
(I35
I40
tp229
sVvery close range-right footed shot
p230
(I1989
I3139
tp231
sVlong range-left footed shot-fast break
p232
(I1
I27
tp233
sVoutside the box-right footed shot-fast break
p234
(I185
I1377
tp235
sVright side of the six yard box-header-direct free kick
p236
g14
sVvery close range-right footed shot-headed pass
p237
(I216
I448
tp238
sVright footed shot-through ball
p239
(I132
I814
tp240
sVoutside the box-left footed shot-fast break
p241
(I92
I740
tp242
sVright side of the six yard box-left footed shot-through ball
p243
(I4
I19
tp244
sVright footed shot-cross
p245
(I36
I744
tp246
sVlong range-left footed shot-through ball
p247
(I4
I17
tp248
sVleft side-left footed shot-through ball
p249
(I411
I2592
tp250
sVleft side-right footed shot-direct free kick
p251
(I1
I5
tp252
sVleft side-header-cross
p253
(I26
I1223
tp254
sVright side-right footed shot-corner
p255
(I21
I177
tp256
sVcentre of the box-header-through ball
p257
(I60
I272
tp258
sVvery close range-headed pass
p259
(I15
I26
tp260
sVvery close range-header
p261
(I459
I1004
tp262
sVright side-header
p263
(I8
I379
tp264
sVright side of the six yard box-header-headed pass
p265
(I20
I119
tp266
sVright side-header-corner
p267
(I1
I10
tp268
sVright side of the six yard box-header-cross
p269
(I392
I2701
tp270
sVleft side-left footed shot
p271
(I798
I16016
tp272
sVright side-right footed shot-fast break
p273
(I178
I854
tp274
sVcentre of the box-left footed shot-cross
p275
(I777
I5766
tp276
sVvery close range-header-corner
p277
(I91
I146
tp278
sVleft side of the six yard box-left footed shot-headed pass
p279
(I30
I138
tp280
sVoutside the box-right footed shot-headed pass
p281
(I119
I3794
tp282
sVvery close range
p283
(I7358
I14741
tp284
sVleft side-right footed shot-headed pass
p285
(I27
I493
tp286
sVvery close range-header-through ball
p287
(I3
I4
tp288
sVheader-through ball
p289
(I2
I4
tp290
sVleft side-left footed shot-fast break
p291
(I145
I637
tp292
sVoutside the box-left footed shot-cross
p293
(I17
I719
tp294
sVright side-left footed shot-through ball
p295
(I56
I335
tp296
sVcentre of the box-right footed shot-headed pass
p297
(I469
I3050
tp298
sVleft side-header-corner
p299
(I1
I9
tp300
sVleft side-left footed shot-cross
p301
(I67
I1465
tp302
sVlong range-right footed shot-through ball
p303
(I4
I24
tp304
sVvery close range-left footed shot-cross
p305
(I349
I689
tp306
sVright side-header-through ball
p307
(I0
I4
tp308
sVoutside the box-header-headed pass
p309
(I0
I5
tp310
sVright side-left footed shot-cross
p311
(I15
I396
tp312
sVlong range-header-cross
p313
g14
sVcentre of the box-headed pass
p314
(I1
I12
tp315
sVoutside the box-header-through ball
p316
(I0
I11
tp317
sVright side-right footed shot-cross
p318
(I78
I1912
tp319
sVright footed shot-headed pass
p320
(I20
I328
tp321
sVright side-right footed shot
p322
(I1203
I21096
tp323
sVvery close range-right footed shot-through ball
p324
(I37
I59
tp325
sVvery close range-header-fast break
p326
(I8
I9
tp327
sVleft side of the six yard box-right footed shot-fast break
p328
(I8
I14
tp329
sVheader
p330
(I9027
I79371
tp331
sVcross
p332
(I0
I9
tp333
sVright side-cross
p334
(I0
I7
tp335
sVleft side of the six yard box
p336
(I1545
I7613
tp337
sVleft side of the six yard box-corner
p338
(I1
I2
tp339
sVvery close range-fast break
p340
(I2
I2
tp341
sVleft side of the six yard box-header-cross
p342
(I383
I2762
tp343
sVright side of the six yard box-corner
p344
(I0
I3
tp345
sVvery close range-right footed shot-cross
p346
(I660
I1290
tp347
sVleft footed shot-corner
p348
(I1
I33
tp349
sVleft side of the six yard box-left footed shot
p350
(I372
I1383
tp351
sVright side-header-fast break
p352
(I0
I3
tp353
sVlong range-left footed shot-corner
p354
(I3
I56
tp355
sVleft side of the six yard box-header-corner
p356
(I16
I59
tp357
sVright side of the six yard box-header-through ball
p358
(I0
I5
tp359
sVleft side of the six yard box-header-through ball
p360
(I2
I5
tp361
sVpenalty-right footed shot
p362
(I3149
I3896
tp363
sS'date'
p364
S'20171109'
p365
sVleft footed shot-through ball
p366
(I80
I568
tp367
sVleft side of the six yard box-right footed shot
p368
(I226
I953
tp369
sVleft side of the six yard box-cross
p370
(I5
I36
tp371
sVvery close range-right footed shot-fast break
p372
(I79
I87
tp373
sVright side of the six yard box-left footed shot-cross
p374
(I48
I211
tp375
sVvery close range-left footed shot-headed pass
p376
(I94
I197
tp377
sVlong range-right footed shot-cross
p378
(I0
I27
tp379
sVlong range-right footed shot
p380
(I125
I4763
tp381
sVheader-headed pass
p382
(I1
I12
tp383
sVleft side
p384
(I2579
I40528
tp385
sVright side of the six yard box-left footed shot-corner
p386
(I5
I13
tp387
sVoutside the box-left footed shot-direct free kick
p388
(I5
I203
tp389
sVcentre of the box-right footed shot-fast break
p390
(I683
I1164
tp391
sVvery close range-header-headed pass
p392
(I244
I558
tp393
sVlong range-right footed shot-corner
p394
(I9
I101
tp395
sVoutside the box-right footed shot-cross
p396
(I29
I1258
tp397
sVlong range-left footed shot-headed pass
p398
(I2
I61
tp399
sVoutside the box-right footed shot
p400
(I3038
I124186
tp401
sVright footed shot-corner
p402
(I3
I58
tp403
s.