(dp0
S''
p1
(I293
I297
tp2
sVleft side-cross
p3
(I0
I2
tp4
sVpenalty-left footed shot
p5
(I252
I300
tp6
sVleft footed shot-headed pass
p7
(I4
I69
tp8
sVright side-left footed shot-headed pass
p9
(I2
I94
tp10
sVlong range-left footed shot-through ball
p11
(I0
I2
tp12
sVright side-right footed shot-fast break
p13
(I16
I187
tp14
sVright side-header-corner
p15
(I3
I24
tp16
sVcross
p17
(I0
I5
tp18
sVvery close range-corner
p19
(I26
I29
tp20
sVleft side-right footed shot-cross
p21
(I13
I300
tp22
sVright side-right footed shot-through ball
p23
(I170
I785
tp24
sVcentre of the box-left footed shot-fast break
p25
(I41
I136
tp26
sVleft side-right footed shot-through ball
p27
(I53
I238
tp28
sVleft footed shot-cross
p29
(I10
I138
tp30
sVlong range-right footed shot-direct free kick
p31
(I0
I157
tp32
sVright side-cross
p33
(I0
I1
tp34
sVlong range-left footed shot-cross
p35
(I1
I7
tp36
sVoutside the box-header-cross
p37
(I0
I29
tp38
sVoutside the box-right footed shot-corner
p39
(I1078
I8552
tp40
sVoutside the box-header
p41
(I0
I125
tp42
sVcentre of the box-left footed shot-through ball
p43
(I265
I766
tp44
sVpenalty
p45
(I2289
I2825
tp46
sVcentre of the box-left footed shot-corner
p47
(I1289
I2425
tp48
sVvery close range-header-cross
p49
(I507
I1433
tp50
sVright side of the six yard box-header-corner
p51
(I21
I67
tp52
sVlong range
p53
(I103
I3732
tp54
sVvery close range-left footed shot-through ball
p55
(I5
I7
tp56
sVlong range-right footed shot-headed pass
p57
(I0
I37
tp58
sVcentre of the box-right footed shot-corner
p59
(I2094
I3929
tp60
sVcentre of the box
p61
(I12670
I82401
tp62
sVright side of the six yard box-left footed shot-headed pass
p63
(I4
I13
tp64
sVleft footed shot-corner
p65
(I239
I580
tp66
sVright side of the six yard box-right footed shot-cross
p67
(I74
I345
tp68
sVright side-left footed shot-fast break
p69
(I2
I20
tp70
sVleft side of the six yard box-left footed shot-fast break
p71
(I3
I10
tp72
sVleft side-header-through ball
p73
g34
sVleft side of the six yard box-left footed shot-cross
p74
(I57
I237
tp75
sVoutside the box-left footed shot-through ball
p76
(I24
I80
tp77
sVlong range-right footed shot-through ball
p78
(I2
I6
tp79
sVlong range-right footed shot-fast break
p80
(I0
I9
tp81
sVright side-left footed shot
p82
(I111
I4210
tp83
sVright footed shot-direct free kick
p84
(I0
I70
tp85
sVcentre of the box-right footed shot-through ball
p86
(I546
I1430
tp87
sVoutside the box-through ball
p88
g34
sVright side of the six yard box-cross
p89
(I0
I19
tp90
sVleft footed shot
p91
(I8175
I83199
tp92
sVvery close range-right footed shot-corner
p93
(I555
I647
tp94
sVleft side of the six yard box-right footed shot-headed pass
p95
(I8
I32
tp96
sVlong range-left footed shot-direct free kick
p97
(I0
I74
tp98
sVvery close range-left footed shot
p99
(I558
I1040
tp100
sVleft side of the six yard box-header
p101
(I107
I705
tp102
sVcentre of the box-corner
p103
(I16
I28
tp104
sVleft side-header
p105
(I7
I425
tp106
sVoutside the box-left footed shot-corner
p107
(I592
I4963
tp108
sVleft side of the six yard box-right footed shot-cross
p109
(I31
I206
tp110
sVright side of the six yard box-left footed shot-fast break
p111
(I1
I2
tp112
sVright side-header
p113
(I6
I416
tp114
sVoutside the box-left footed shot-headed pass
p115
(I26
I687
tp116
sVcentre of the box-cross
p117
(I27
I237
tp118
sVright side of the six yard box-headed pass
p119
(I1
I1
tp120
sVvery close range-left footed shot-corner
p121
(I306
I369
tp122
sVright side of the six yard box-right footed shot-headed pass
p123
(I16
I65
tp124
sVright side-left footed shot-corner
p125
(I159
I751
tp126
sVleft footed shot-fast break
p127
(I6
I27
tp128
sVoutside the box
p129
(I3027
I107684
tp130
sVheader-corner
p131
(I0
I17
tp132
sVcentre of the box-through ball
p133
g34
sVleft side-left footed shot-headed pass
p134
(I15
I254
tp135
sVcentre of the box-right footed shot-cross
p136
(I521
I3685
tp137
sVleft side-right footed shot-corner
p138
(I303
I1387
tp139
sVleft side of the six yard box-header-corner
p140
(I33
I104
tp141
sVleft side-right footed shot-fast break
p142
(I3
I59
tp143
sVoutside the box-right footed shot-direct free kick
p144
(I0
I1584
tp145
sVcentre of the box-left footed shot-headed pass
p146
(I83
I574
tp147
sVright footed shot
p148
(I14996
I139383
tp149
sVleft side-right footed shot
p150
(I230
I7514
tp151
sVright side of the six yard box-right footed shot-through ball
p152
(I29
I71
tp153
sVcentre of the box-header-cross
p154
(I1651
I18513
tp155
sVright side of the six yard box-header-fast break
p156
g34
sVright side of the six yard box-left footed shot
p157
(I41
I269
tp158
sVleft footed shot-direct free kick
p159
(I0
I37
tp160
sVright side of the six yard box-header
p161
(I102
I674
tp162
sVleft side of the six yard box-right footed shot-through ball
p163
(I8
I25
tp164
sVvery close range-cross
p165
(I14
I50
tp166
sVleft side of the six yard box-left footed shot-corner
p167
(I126
I231
tp168
sVcentre of the box-header-fast break
p169
(I1
I14
tp170
sVpenalty-left footed shot-corner
p171
(I263
I330
tp172
sVcentre of the box-left footed shot
p173
(I1509
I12521
tp174
sVright side of the six yard box
p175
(I844
I4035
tp176
sVoutside the box-header-corner
p177
(I0
I24
tp178
sVoutside the box-right footed shot-through ball
p179
(I55
I200
tp180
sVleft side-header-headed pass
p181
g34
sVright side of the six yard box-right footed shot
p182
(I231
I1155
tp183
sVright side of the six yard box-right footed shot-corner
p184
(I148
I294
tp185
sVoutside the box-left footed shot
p186
(I426
I32267
tp187
sVright side-right footed shot-headed pass
p188
(I19
I327
tp189
sVright side
p190
(I1474
I21416
tp191
sVright side-header-cross
p192
(I6
I366
tp193
sVheader
p194
(I4847
I42177
tp195
sVleft side of the six yard box-right footed shot-corner
p196
(I81
I176
tp197
sVright side-header-headed pass
p198
(I0
I4
tp199
sVcentre of the box-header-headed pass
p200
(I29
I363
tp201
sVheader-cross
p202
(I11
I285
tp203
sVright footed shot-fast break
p204
(I3
I35
tp205
sVcentre of the box-header
p206
(I1103
I13342
tp207
sVcentre of the box-right footed shot
p208
(I2696
I20052
tp209
sVvery close range-left footed shot-fast break
p210
(I16
I19
tp211
sVvery close range-right footed shot
p212
(I923
I1689
tp213
sVlong range-left footed shot-fast break
p214
(I0
I4
tp215
sVoutside the box-right footed shot-fast break
p216
(I5
I228
tp217
sVvery close range-right footed shot-headed pass
p218
(I70
I153
tp219
sVright footed shot-through ball
p220
(I24
I161
tp221
sVoutside the box-left footed shot-fast break
p222
(I3
I134
tp223
sVright side of the six yard box-left footed shot-through ball
p224
(I1
I5
tp225
sVoutside the box-corner
p226
g120
sVright footed shot-cross
p227
(I7
I247
tp228
sVleft side-left footed shot-through ball
p229
(I108
I545
tp230
sVleft side-right footed shot-direct free kick
p231
(I0
I2
tp232
sVleft side-header-cross
p233
(I10
I389
tp234
sVright side-right footed shot-corner
p235
(I421
I2061
tp236
sVcentre of the box-header-through ball
p237
(I21
I72
tp238
sVvery close range-headed pass
p239
(I10
I14
tp240
sVleft side of the six yard box-header-headed pass
p241
(I7
I34
tp242
sVright side of the six yard box-header-headed pass
p243
(I6
I36
tp244
sVlong range-left footed shot
p245
(I15
I1039
tp246
sVleft side-left footed shot
p247
(I350
I8659
tp248
sVright side of the six yard box-header-cross
p249
(I116
I860
tp250
sVcentre of the box-left footed shot-cross
p251
(I267
I1971
tp252
sVright side of the six yard box-corner
p253
(I1
I4
tp254
sVleft side of the six yard box-left footed shot-headed pass
p255
(I14
I45
tp256
sVoutside the box-right footed shot-headed pass
p257
(I50
I1130
tp258
sVright side of the six yard box-left footed shot-cross
p259
(I16
I68
tp260
sVleft side-right footed shot-headed pass
p261
(I8
I160
tp262
sVvery close range-header-through ball
p263
g120
sVheader-through ball
p264
g34
sVleft side-left footed shot-fast break
p265
(I11
I151
tp266
sVoutside the box-left footed shot-cross
p267
(I4
I219
tp268
sVright side-left footed shot-through ball
p269
(I18
I73
tp270
sVcentre of the box-right footed shot-headed pass
p271
(I176
I1059
tp272
sVleft side-header-corner
p273
(I5
I45
tp274
sVleft side-left footed shot-cross
p275
(I17
I439
tp276
sVvery close range-header-corner
p277
(I154
I230
tp278
sVvery close range-left footed shot-cross
p279
(I94
I208
tp280
sVleft footed shot-through ball
p281
(I26
I142
tp282
sVoutside the box-header-headed pass
p283
(I0
I3
tp284
sVright side-left footed shot-cross
p285
(I4
I125
tp286
sVlong range-header-cross
p287
g34
sVcentre of the box-headed pass
p288
(I1
I5
tp289
sVoutside the box-header-through ball
p290
(I0
I8
tp291
sVright side-right footed shot-cross
p292
(I25
I579
tp293
sVright footed shot-headed pass
p294
(I6
I113
tp295
sVright side-right footed shot
p296
(I511
I11387
tp297
sS'date'
p298
S'20171118'
p299
sVleft side of the six yard box-cross
p300
(I3
I12
tp301
sVvery close range-header-fast break
p302
(I5
I5
tp303
sVleft side of the six yard box-right footed shot-fast break
p304
(I3
I4
tp305
sVcentre of the box-header-corner
p306
(I243
I891
tp307
sVleft side of the six yard box-left footed shot-through ball
p308
(I24
I50
tp309
sVleft side of the six yard box
p310
(I897
I4132
tp311
sVleft side of the six yard box-corner
p312
(I1
I4
tp313
sVvery close range-fast break
p314
g120
sVleft side of the six yard box-header-cross
p315
(I129
I867
tp316
sVpenalty-right footed shot-corner
p317
(I958
I1189
tp318
sVvery close range-right footed shot-cross
p319
(I209
I407
tp320
sVright side of the six yard box-right footed shot-fast break
p321
(I3
I9
tp322
sVcentre of the box-right footed shot-fast break
p323
(I72
I233
tp324
sVlong range-left footed shot-corner
p325
(I17
I185
tp326
sVleft side-left footed shot-corner
p327
(I314
I1534
tp328
sVright side of the six yard box-header-through ball
p329
g34
sVpenalty-right footed shot
p330
(I816
I1006
tp331
sVvery close range-header
p332
(I462
I1359
tp333
sVleft side of the six yard box-right footed shot
p334
(I105
I594
tp335
sVvery close range-right footed shot-through ball
p336
(I8
I15
tp337
sVvery close range-right footed shot-fast break
p338
(I18
I22
tp339
sVvery close range
p340
(I4108
I8030
tp341
sVlong range-left footed shot-headed pass
p342
(I1
I15
tp343
sVlong range-right footed shot-cross
p344
(I0
I8
tp345
sVlong range-right footed shot
p346
(I24
I1778
tp347
sVheader-headed pass
p348
(I1
I3
tp349
sVleft side
p350
(I1447
I22107
tp351
sVright side of the six yard box-left footed shot-corner
p352
(I33
I68
tp353
sVoutside the box-left footed shot-direct free kick
p354
(I0
I939
tp355
sVleft side of the six yard box-left footed shot
p356
(I153
I782
tp357
sVvery close range-header-headed pass
p358
(I93
I195
tp359
sVlong range-right footed shot-corner
p360
(I43
I409
tp361
sVoutside the box-right footed shot-cross
p362
(I8
I380
tp363
sVvery close range-left footed shot-headed pass
p364
(I36
I64
tp365
sVoutside the box-right footed shot
p366
(I754
I56127
tp367
sVright footed shot-corner
p368
(I404
I970
tp369
s.