(dp0
S''
p1
(I512
I514
tp2
sVleft side-cross
p3
(I0
I3
tp4
sVpenalty-left footed shot
p5
(I504
I619
tp6
sVleft footed shot-headed pass
p7
(I4
I100
tp8
sVright side-left footed shot-headed pass
p9
(I4
I134
tp10
sVlong range-left footed shot-through ball
p11
(I0
I3
tp12
sVright side-header-corner
p13
(I1
I8
tp14
sVcross
p15
(I0
I6
tp16
sVvery close range-corner
p17
(I10
I10
tp18
sVleft side-right footed shot-cross
p19
(I21
I486
tp20
sVright side-right footed shot-through ball
p21
(I260
I1245
tp22
sVcentre of the box-left footed shot-fast break
p23
(I179
I308
tp24
sVleft side-right footed shot-through ball
p25
(I84
I390
tp26
sVcorner
p27
(I318
I318
tp28
sVleft footed shot-cross
p29
(I13
I208
tp30
sVlong range-right footed shot-direct free kick
p31
(I0
I2
tp32
sVright side-cross
p33
(I0
I4
tp34
sVlong range-left footed shot-cross
p35
(I1
I13
tp36
sVoutside the box-header-cross
p37
(I0
I54
tp38
sVoutside the box-right footed shot-corner
p39
(I42
I768
tp40
sVright side of the six yard box-header-cross
p41
(I187
I1329
tp42
sVcentre of the box-left footed shot-through ball
p43
(I417
I1171
tp44
sVpenalty
p45
(I2222
I2755
tp46
sVcentre of the box-left footed shot-corner
p47
(I45
I169
tp48
sVvery close range-header-cross
p49
(I738
I2228
tp50
sVright side of the six yard box-header-corner
p51
(I3
I21
tp52
sVlong range
p53
(I97
I3678
tp54
sVvery close range-left footed shot-through ball
p55
(I14
I17
tp56
sVlong range-right footed shot-headed pass
p57
(I0
I59
tp58
sVleft side of the six yard box-header-corner
p59
(I8
I35
tp60
sVcentre of the box-right footed shot-corner
p61
(I86
I317
tp62
sVcentre of the box
p63
(I12291
I81224
tp64
sVright side of the six yard box-left footed shot-headed pass
p65
(I3
I16
tp66
sVright side of the six yard box-right footed shot-fast break
p67
(I13
I21
tp68
sVright side of the six yard box-right footed shot-cross
p69
(I118
I564
tp70
sVright side-left footed shot-fast break
p71
(I12
I47
tp72
sVleft side of the six yard box-left footed shot-fast break
p73
(I9
I16
tp74
sVleft side-header-through ball
p75
(I0
I3
tp76
sVleft side of the six yard box-left footed shot-cross
p77
(I78
I334
tp78
sVoutside the box-left footed shot-through ball
p79
(I37
I135
tp80
sVlong range-right footed shot-through ball
p81
(I2
I8
tp82
sVlong range-right footed shot-fast break
p83
(I2
I18
tp84
sVright side-left footed shot
p85
(I231
I4643
tp86
sVleft side of the six yard box-right footed shot-headed pass
p87
(I13
I50
tp88
sVoutside the box-left footed shot-headed pass
p89
(I33
I1080
tp90
sVoutside the box-through ball
p91
(I0
I1
tp92
sVleft footed shot
p93
(I7951
I82386
tp94
sVvery close range-right footed shot-corner
p95
(I105
I126
tp96
sVright footed shot-direct free kick
p97
g92
sVlong range-left footed shot-direct free kick
p98
g92
sVvery close range-left footed shot
p99
(I689
I1125
tp100
sVleft side of the six yard box-header
p101
(I52
I258
tp102
sVcentre of the box-corner
p103
(I3
I6
tp104
sVleft side-header
p105
(I10
I232
tp106
sVoutside the box-left footed shot-corner
p107
(I15
I361
tp108
sVleft side of the six yard box-right footed shot-cross
p109
(I48
I318
tp110
sVright side of the six yard box-left footed shot-fast break
p111
(I1
I3
tp112
sVright side-header
p113
(I6
I199
tp114
sVcentre of the box-right footed shot-through ball
p115
(I814
I2205
tp116
sVcentre of the box-cross
p117
(I36
I326
tp118
sVright side of the six yard box-headed pass
p119
(I1
I1
tp120
sVvery close range-left footed shot-corner
p121
(I56
I65
tp122
sVright side of the six yard box-right footed shot-headed pass
p123
(I24
I100
tp124
sVright side-left footed shot-corner
p125
(I8
I86
tp126
sVleft footed shot-fast break
p127
(I11
I41
tp128
sVoutside the box
p129
(I2937
I106558
tp130
sVheader-corner
p131
(I0
I2
tp132
sVleft side of the six yard box-header-fast break
p133
(I0
I3
tp134
sVcentre of the box-through ball
p135
g92
sVleft side-left footed shot-headed pass
p136
(I23
I395
tp137
sVcentre of the box-right footed shot-cross
p138
(I801
I5704
tp139
sVleft side-right footed shot-corner
p140
(I12
I115
tp141
sVright side of the six yard box-cross
p142
(I0
I25
tp143
sVleft side-right footed shot-fast break
p144
(I37
I128
tp145
sVoutside the box-right footed shot-direct free kick
p146
(I0
I112
tp147
sVcentre of the box-left footed shot-headed pass
p148
(I125
I869
tp149
sVright footed shot
p150
(I14560
I137469
tp151
sVleft side-right footed shot
p152
(I427
I8191
tp153
sVright side of the six yard box-right footed shot-through ball
p154
(I43
I105
tp155
sVcentre of the box-header-cross
p156
(I2446
I27632
tp157
sVright side of the six yard box-header-fast break
p158
(I0
I2
tp159
sVright side of the six yard box-left footed shot
p160
(I62
I272
tp161
sVleft footed shot-direct free kick
p162
g92
sVright side of the six yard box-header
p163
(I33
I210
tp164
sVleft side of the six yard box-right footed shot-through ball
p165
(I9
I36
tp166
sVvery close range-cross
p167
(I26
I76
tp168
sVleft side of the six yard box-left footed shot-corner
p169
(I12
I28
tp170
sVcentre of the box-header-fast break
p171
(I7
I21
tp172
sVcentre of the box-left footed shot
p173
(I2198
I12674
tp174
sVright side of the six yard box
p175
(I818
I3984
tp176
sVoutside the box-header-corner
p177
g92
sVoutside the box-right footed shot-through ball
p178
(I75
I298
tp179
sVleft side-header-headed pass
p180
(I0
I4
tp181
sVoutside the box-header
p182
(I0
I117
tp183
sVright side of the six yard box-right footed shot
p184
(I275
I1084
tp185
sVright side of the six yard box-right footed shot-corner
p186
(I15
I39
tp187
sVoutside the box-left footed shot
p188
(I918
I36727
tp189
sVright side-right footed shot-headed pass
p190
(I34
I516
tp191
sVright side
p192
(I1439
I21181
tp193
sVright side-header-cross
p194
(I8
I588
tp195
sVfast break
p196
(I4
I4
tp197
sVheader
p198
(I4688
I41593
tp199
sVleft side of the six yard box-right footed shot-corner
p200
(I6
I29
tp201
sVright side-header-headed pass
p202
(I0
I5
tp203
sVcentre of the box-header-headed pass
p204
(I48
I552
tp205
sVheader-cross
p206
(I14
I450
tp207
sVoutside the box-header-fast break
p208
(I0
I2
tp209
sVright footed shot-fast break
p210
(I8
I37
tp211
sVcentre of the box-header
p212
(I392
I4268
tp213
sVcentre of the box-right footed shot
p214
(I3630
I19544
tp215
sVvery close range-left footed shot-fast break
p216
(I18
I19
tp217
sVvery close range-right footed shot
p218
(I1137
I1788
tp219
sVlong range-left footed shot-fast break
p220
(I1
I5
tp221
sVoutside the box-right footed shot-fast break
p222
(I84
I527
tp223
sVvery close range-right footed shot-headed pass
p224
(I116
I234
tp225
sVright footed shot-through ball
p226
(I42
I275
tp227
sVoutside the box-left footed shot-fast break
p228
(I38
I299
tp229
sVright side of the six yard box-left footed shot-through ball
p230
(I1
I8
tp231
sVright footed shot-cross
p232
(I19
I376
tp233
sVleft side-left footed shot-through ball
p234
(I175
I922
tp235
sVleft side-right footed shot-direct free kick
p236
(I0
I2
tp237
sVleft side-header-cross
p238
(I11
I609
tp239
sVright side-right footed shot-corner
p240
(I12
I111
tp241
sVcentre of the box-header-through ball
p242
(I38
I130
tp243
sVvery close range-headed pass
p244
(I9
I15
tp245
sVleft side of the six yard box-header-headed pass
p246
(I8
I54
tp247
sVright side of the six yard box-header-headed pass
p248
(I11
I55
tp249
sVlong range-left footed shot
p250
(I27
I1239
tp251
sVleft side-left footed shot
p252
(I488
I9077
tp253
sVright side-right footed shot-fast break
p254
(I96
I397
tp255
sVcentre of the box-left footed shot-cross
p256
(I386
I2975
tp257
sVleft side of the six yard box-left footed shot-headed pass
p258
(I16
I65
tp259
sVoutside the box-right footed shot-headed pass
p260
(I56
I1810
tp261
sVright side of the six yard box-left footed shot-cross
p262
(I26
I117
tp263
sVleft side-right footed shot-headed pass
p264
(I13
I241
tp265
sVvery close range-header-through ball
p266
g120
sVheader-through ball
p267
(I2
I3
tp268
sVleft side-left footed shot-fast break
p269
(I75
I298
tp270
sVoutside the box-left footed shot-cross
p271
(I7
I345
tp272
sVright side-left footed shot-through ball
p273
(I26
I119
tp274
sVcentre of the box-right footed shot-headed pass
p275
(I252
I1550
tp276
sVleft side-header-corner
p277
(I0
I5
tp278
sVleft side-left footed shot-cross
p279
(I26
I679
tp280
sVvery close range-header-corner
p281
(I58
I92
tp282
sVvery close range-left footed shot-cross
p283
(I154
I334
tp284
sVleft footed shot-through ball
p285
(I35
I222
tp286
sVoutside the box-header-headed pass
p287
(I0
I4
tp288
sVright side-left footed shot-cross
p289
(I8
I196
tp290
sVlong range-header-cross
p291
g92
sVcentre of the box-headed pass
p292
(I1
I9
tp293
sVoutside the box-header-through ball
p294
(I0
I8
tp295
sVright side-right footed shot-cross
p296
(I38
I932
tp297
sVright footed shot-headed pass
p298
(I7
I162
tp299
sVright side-right footed shot
p300
(I694
I11946
tp301
sS'date'
p302
S'20171112'
p303
sVvery close range-right footed shot-through ball
p304
(I14
I24
tp305
sVvery close range-header-fast break
p306
(I7
I8
tp307
sVleft side of the six yard box-right footed shot-fast break
p308
(I5
I8
tp309
sVcentre of the box-header-corner
p310
(I15
I127
tp311
sVleft side of the six yard box-left footed shot-through ball
p312
(I30
I72
tp313
sVleft side of the six yard box
p314
(I870
I4069
tp315
sVleft side of the six yard box-corner
p316
(I1
I2
tp317
sVvery close range-fast break
p318
g120
sVleft side of the six yard box-header-cross
p319
(I195
I1336
tp320
sVright side of the six yard box-corner
p321
(I0
I3
tp322
sVvery close range-right footed shot-cross
p323
(I325
I655
tp324
sVleft footed shot-corner
p325
(I1
I20
tp326
sVleft side of the six yard box-left footed shot
p327
(I225
I821
tp328
sVright side-header-fast break
p329
(I0
I2
tp330
sVleft side of the six yard box-headed pass
p331
(I1
I2
tp332
sVlong range-left footed shot-corner
p333
(I2
I29
tp334
sVleft side-left footed shot-corner
p335
(I10
I80
tp336
sVright side of the six yard box-header-through ball
p337
g92
sVpenalty-right footed shot
p338
(I1718
I2136
tp339
sVvery close range-header
p340
(I258
I554
tp341
sVlong range-right footed shot-corner
p342
(I5
I46
tp343
sVleft side of the six yard box-cross
p344
(I3
I18
tp345
sVvery close range-right footed shot-fast break
p346
(I43
I46
tp347
sVvery close range
p348
(I4000
I7879
tp349
sVlong range-left footed shot-headed pass
p350
(I1
I24
tp351
sVlong range-right footed shot-cross
p352
(I0
I13
tp353
sVlong range-right footed shot
p354
(I56
I2216
tp355
sVheader-headed pass
p356
(I1
I3
tp357
sVleft side
p358
(I1412
I21861
tp359
sVright side of the six yard box-left footed shot-corner
p360
(I1
I5
tp361
sVoutside the box-left footed shot-direct free kick
p362
(I0
I53
tp363
sVcentre of the box-right footed shot-fast break
p364
(I350
I590
tp365
sVvery close range-header-headed pass
p366
(I128
I291
tp367
sVleft side of the six yard box-right footed shot
p368
(I148
I576
tp369
sVright footed shot-corner
p370
(I2
I42
tp371
sVvery close range-left footed shot-headed pass
p372
(I54
I110
tp373
sVoutside the box-right footed shot
p374
(I1618
I63271
tp375
sVoutside the box-right footed shot-cross
p376
(I12
I581
tp377
s.