ccollections
defaultdict
p0
(cdill.dill
_create_function
p1
(cdill.dill
_load_type
p2
(S'CodeType'
p3
tp4
Rp5
(I0
I0
I2
I83
S'd\x02\x00S'
p6
(NF0.0
(F0.0
F0.0
tp7
tp8
(t(tS'xGoals.py'
p9
S'<lambda>'
p10
I98
S''
p11
(t(ttp12
Rp13
c__main__
__dict__
g10
NN(dp14
tp15
Rp16
tp17
Rp18
S''
p19
(I32
I34
tp20
sVleft side-cross
p21
(F0.0
F6.0
tp22
sVpenalty-left footed shot
p23
(F627.0
F763.0
tp24
sVleft footed shot-headed pass
p25
(I4
I104
tp26
sVright side-left footed shot-headed pass
p27
(F8.0
F271.0
tp28
sVlong range-left footed shot-through ball
p29
(F0.0
F6.0
tp30
sV-left footed shot-through ball
p31
(F37.0
F226.0
tp32
sV-left footed shot
p33
(F503.0
F3252.0
tp34
sVright side-header-corner
p35
(F12.0
F104.0
tp36
sV-right footed shot-corner
p37
(F637.0
F1539.0
tp38
sVvery close range-corner
p39
(F81.0
F93.0
tp40
sVleft side-right footed shot-cross
p41
(F44.0
F969.0
tp42
sVright side-right footed shot-through ball
p43
(F538.0
F2516.0
tp44
sVcentre of the box-left footed shot-fast break
p45
(F119.0
F440.0
tp46
sVleft side-right footed shot-through ball
p47
(F176.0
F796.0
tp48
sVleft footed shot-cross
p49
(I15
I210
tp50
sV-right footed shot-fast break
p51
(F5.0
F51.0
tp52
sVlong range-right footed shot-direct free kick
p53
(F0.0
F482.0
tp54
sVright side-cross
p55
(F0.0
F8.0
tp56
sVlong range-left footed shot-cross
p57
(F2.0
F26.0
tp58
sVoutside the box-header-cross
p59
(F0.0
F106.0
tp60
sVoutside the box-right footed shot-corner
p61
(F3329.0
F26287.0
tp62
sVright side-right footed shot-fast break
p63
(F52.0
F677.0
tp64
sVcentre of the box-left footed shot-through ball
p65
(F865.0
F2372.0
tp66
sVpenalty
p67
(F2325.0
F2866.0
tp68
sVcentre of the box-left footed shot-corner
p69
(F3780.0
F7156.0
tp70
sVvery close range-header-cross
p71
(F1512.0
F4492.0
tp72
sVright side of the six yard box-header-corner
p73
(F58.0
F200.0
tp74
sVlong range
p75
(F107.0
F3771.0
tp76
sVvery close range-left footed shot-through ball
p77
(F29.0
F35.0
tp78
sVcross
p79
(I0
I7
tp80
sV-right footed shot-headed pass
p81
(F7.0
F166.0
tp82
sVlong range-right footed shot-headed pass
p83
(F0.0
F119.0
tp84
sVleft side of the six yard box-header-corner
p85
(F94.0
F290.0
tp86
sVcentre of the box-right footed shot-corner
p87
(F6221.0
F11605.0
tp88
sVcentre of the box
p89
(F12912.0
F83327.0
tp90
sVright side of the six yard box-left footed shot-headed pass
p91
(F8.0
F34.0
tp92
sVleft footed shot-corner
p93
(I368
I910
tp94
sVright side of the six yard box-right footed shot-cross
p95
(F241.0
F1130.0
tp96
sVright side-left footed shot-fast break
p97
(F6.0
F78.0
tp98
sVleft side of the six yard box-left footed shot-fast break
p99
(F6.0
F24.0
tp100
sVleft side-header-through ball
p101
(F0.0
F5.0
tp102
sVleft side of the six yard box-left footed shot-cross
p103
(F162.0
F680.0
tp104
sVoutside the box-left footed shot-through ball
p105
(F76.0
F272.0
tp106
sVlong range-right footed shot-through ball
p107
(F4.0
F16.0
tp108
sVlong range-right footed shot-fast break
p109
(F0.0
F34.0
tp110
sV-left footed shot-cross
p111
(F15.0
F214.0
tp112
sVheader
p113
(I1
I80
tp114
sVright footed shot-direct free kick
p115
(I0
I124
tp116
sVoutside the box-left footed shot-headed pass
p117
(F70.0
F2187.0
tp118
sVoutside the box-through ball
p119
(F0.0
F2.0
tp120
sVleft footed shot
p121
(I72
I1700
tp122
sVvery close range-right footed shot-corner
p123
(F1634.0
F1888.0
tp124
sVleft side of the six yard box-right footed shot-headed pass
p125
(F28.0
F103.0
tp126
sVcentre of the box-right footed shot-direct free kick
p127
(F0.0
F2.0
tp128
sVlong range-left footed shot-direct free kick
p129
(F0.0
F250.0
tp130
sVvery close range-left footed shot
p131
(F1373.0
F2440.0
tp132
sVleft side of the six yard box-header
p133
(F306.0
F1931.0
tp134
sVcentre of the box-corner
p135
(F44.0
F82.0
tp136
sVleft side-header
p137
(F27.0
F1063.0
tp138
sVoutside the box-left footed shot-corner
p139
(F1855.0
F15285.0
tp140
sVleft side of the six yard box-right footed shot-cross
p141
(F97.0
F641.0
tp142
sVright side of the six yard box-left footed shot-fast break
p143
(F2.0
F6.0
tp144
sVright side-header
p145
(F16.0
F985.0
tp146
sVcentre of the box-right footed shot-through ball
p147
(F1676.0
F4503.0
tp148
sVcentre of the box-cross
p149
(F72.0
F652.0
tp150
sVright side of the six yard box-headed pass
p151
(F2.0
F2.0
tp152
sV-left footed shot-corner
p153
(F368.0
F911.0
tp154
sVvery close range-left footed shot-corner
p155
(F896.0
F1062.0
tp156
sV-corner
p157
(F15.0
F15.0
tp158
sVright side of the six yard box-right footed shot-headed pass
p159
(F47.0
F198.0
tp160
sVright side-left footed shot-corner
p161
(F446.0
F2228.0
tp162
sVleft footed shot-fast break
p163
(I7
I43
tp164
sVoutside the box
p165
(F3092.0
F108572.0
tp166
sVheader-corner
p167
(I1
I22
tp168
sVleft side of the six yard box-header-fast break
p169
(F0.0
F6.0
tp170
sVcentre of the box-through ball
p171
(F0.0
F2.0
tp172
sVleft side-left footed shot-headed pass
p173
(F48.0
F800.0
tp174
sVcentre of the box-right footed shot-cross
p175
(F1640.0
F11550.0
tp176
sVleft side-right footed shot-corner
p177
(F857.0
F4151.0
tp178
sVright side of the six yard box-cross
p179
(F0.0
F51.0
tp180
sVleft side-right footed shot-fast break
p181
(F8.0
F198.0
tp182
sVoutside the box-right footed shot-direct free kick
p183
(F0.0
F4963.0
tp184
sV-left footed shot-fast break
p185
(F7.0
F43.0
tp186
sVcentre of the box-left footed shot-headed pass
p187
(F257.0
F1748.0
tp188
sVright footed shot
p189
(I108
I2837
tp190
sVleft side-right footed shot
p191
(F681.0
F16212.0
tp192
sVright side of the six yard box-right footed shot-through ball
p193
(F87.0
F213.0
tp194
sV-header
p195
(F19.0
F555.0
tp196
sVcentre of the box-header-cross
p197
(F5068.0
F55828.0
tp198
sVright side of the six yard box-header-fast break
p199
(F0.0
F4.0
tp200
sVright side of the six yard box-left footed shot
p201
(F115.0
F615.0
tp202
sVleft footed shot-direct free kick
p203
(I0
I60
tp204
sVright side of the six yard box-header
p205
(F266.0
F1822.0
tp206
sVleft side of the six yard box-right footed shot-through ball
p207
(F18.0
F72.0
tp208
sVvery close range-cross
p209
(F54.0
F160.0
tp210
sVleft side of the six yard box-left footed shot-corner
p211
(F328.0
F670.0
tp212
sVoutside the box-header-fast break
p213
(F0.0
F2.0
tp214
sVcentre of the box-header-fast break
p215
(F2.0
F38.0
tp216
sVpenalty-left footed shot-corner
p217
(F834.0
F1022.0
tp218
sVcentre of the box-left footed shot
p219
(F4144.0
F28372.0
tp220
sVright side of the six yard box
p221
(F858.0
F4068.0
tp222
sV-cross
p223
(F0.0
F7.0
tp224
sVoutside the box-header-corner
p225
(F0.0
F60.0
tp226
sVoutside the box-right footed shot-through ball
p227
(F157.0
F603.0
tp228
sVleft side-header-headed pass
p229
(F0.0
F8.0
tp230
sVoutside the box-header
p231
(F0.0
F283.0
tp232
sV-header-cross
p233
(F14.0
F458.0
tp234
sVright side of the six yard box-right footed shot
p235
(F612.0
F2725.0
tp236
sV-header-through ball
p237
(F2.0
F3.0
tp238
sV-right footed shot
p239
(F818.0
F5358.0
tp240
sVright side of the six yard box-right footed shot-corner
p241
(F430.0
F818.0
tp242
sVoutside the box-left footed shot
p243
(F1179.0
F68249.0
tp244
sVright side-right footed shot-headed pass
p245
(F67.0
F1025.0
tp246
sVright side
p247
(F1506.0
F21634.0
tp248
sVright side-header-cross
p249
(F16.0
F1183.0
tp250
sVright side-left footed shot
p251
(F339.0
F9046.0
tp252
sVleft side of the six yard box-right footed shot-corner
p253
(F229.0
F505.0
tp254
sV-right footed shot-through ball
p255
(F43.0
F279.0
tp256
sVright side-header-headed pass
p257
(F0.0
F10.0
tp258
sVcentre of the box-header-headed pass
p259
(F104.0
F1116.0
tp260
sVheader-cross
p261
(I14
I447
tp262
sV-left footed shot-headed pass
p263
(F5.0
F105.0
tp264
sVright footed shot-fast break
p265
(I5
I50
tp266
sVcentre of the box-header
p267
(F3263.0
F37479.0
tp268
sVcentre of the box-right footed shot
p269
(F7341.0
F45837.0
tp270
sVvery close range-left footed shot-fast break
p271
(F48.0
F56.0
tp272
sVvery close range-right footed shot
p273
(F2315.0
F4045.0
tp274
sVlong range-left footed shot-fast break
p275
(F0.0
F14.0
tp276
sV-right footed shot-cross
p277
(F19.0
F384.0
tp278
sVoutside the box-right footed shot-fast break
p279
(F16.0
F1035.0
tp280
sVvery close range-right footed shot-headed pass
p281
(F236.0
F479.0
tp282
sVright footed shot-through ball
p283
(I43
I272
tp284
sVoutside the box-left footed shot-fast break
p285
(F12.0
F564.0
tp286
sVright side of the six yard box-left footed shot-through ball
p287
(F2.0
F16.0
tp288
sVoutside the box-corner
p289
(F2.0
F2.0
tp290
sVright footed shot-cross
p291
(I19
I376
tp292
sVleft side-left footed shot-through ball
p293
(F357.0
F1848.0
tp294
sVleft side-right footed shot-direct free kick
p295
(F0.0
F4.0
tp296
sVleft side-header-cross
p297
(F24.0
F1218.0
tp298
sVright side-right footed shot-corner
p299
(F1338.0
F6218.0
tp300
sVcentre of the box-header-through ball
p301
(F76.0
F260.0
tp302
sVvery close range-headed pass
p303
(F20.0
F34.0
tp304
sVleft side of the six yard box-header-headed pass
p305
(F22.0
F118.0
tp306
sVright side of the six yard box-header-headed pass
p307
(F21.0
F110.0
tp308
sVlong range-left footed shot
p309
(F43.0
F2161.0
tp310
sVleft side-left footed shot
p311
(F924.0
F18768.0
tp312
sVright side of the six yard box-header-cross
p313
(F381.0
F2663.0
tp314
sV-left footed shot-direct free kick
p315
(F0.0
F60.0
tp316
sVcentre of the box-left footed shot-cross
p317
(F794.0
F6006.0
tp318
sVright side of the six yard box-corner
p319
(F2.0
F10.0
tp320
sVleft side of the six yard box-left footed shot-headed pass
p321
(F36.0
F137.0
tp322
sVoutside the box-right footed shot-headed pass
p323
(F126.0
F3682.0
tp324
sVright side of the six yard box-left footed shot-cross
p325
(F58.0
F239.0
tp326
sVleft side-right footed shot-headed pass
p327
(F26.0
F481.0
tp328
sVvery close range-header-through ball
p329
(F2.0
F2.0
tp330
sVheader-through ball
p331
(I2
I3
tp332
sVleft side-left footed shot-fast break
p333
(F40.0
F532.0
tp334
sVoutside the box-left footed shot-cross
p335
(F14.0
F692.0
tp336
sVright side-left footed shot-through ball
p337
(F57.0
F242.0
tp338
sVcentre of the box-right footed shot-headed pass
p339
(F519.0
F3133.0
tp340
sVleft side-header-corner
p341
(F14.0
F126.0
tp342
sVleft side-left footed shot-cross
p343
(F52.0
F1355.0
tp344
sV-right footed shot-direct free kick
p345
(F0.0
F124.0
tp346
sV-header-corner
p347
(F1.0
F22.0
tp348
sVvery close range-header-corner
p349
(F458.0
F666.0
tp350
sVvery close range-left footed shot-cross
p351
(F316.0
F679.0
tp352
sVleft footed shot-through ball
p353
(I37
I225
tp354
sVoutside the box-header-headed pass
p355
(F0.0
F8.0
tp356
sVright side-left footed shot-cross
p357
(F15.0
F389.0
tp358
sVlong range-header-cross
p359
(F0.0
F2.0
tp360
sVcentre of the box-headed pass
p361
(F2.0
F18.0
tp362
sVoutside the box-header-through ball
p363
(F0.0
F16.0
tp364
sVright side-right footed shot-cross
p365
(F80.0
F1870.0
tp366
sVright footed shot-headed pass
p367
(I7
I161
tp368
sVright side-right footed shot
p369
(F1345.0
F24863.0
tp370
sS'date'
p371
S'20171217'
p372
sVvery close range-right footed shot-through ball
p373
(F29.0
F49.0
tp374
sVright side-corner
p375
(F2.0
F2.0
tp376
sVvery close range-header-fast break
p377
(F10.0
F12.0
tp378
sVleft side of the six yard box-right footed shot-fast break
p379
(F8.0
F14.0
tp380
sVcentre of the box-header-corner
p381
(F692.0
F2526.0
tp382
sVleft side of the six yard box-left footed shot-through ball
p383
(F59.0
F141.0
tp384
sVleft side of the six yard box
p385
(F921.0
F4182.0
tp386
sVleft side of the six yard box-corner
p387
(F6.0
F12.0
tp388
sVvery close range-fast break
p389
(F2.0
F4.0
tp390
sVleft side of the six yard box-header-cross
p391
(F406.0
F2689.0
tp392
sVpenalty-right footed shot-corner
p393
(F2882.0
F3554.0
tp394
sVvery close range-right footed shot-cross
p395
(F672.0
F1327.0
tp396
sVright side of the six yard box-right footed shot-fast break
p397
(F12.0
F32.0
tp398
sVleft side of the six yard box-left footed shot
p399
(F482.0
F1918.0
tp400
sVright side-header-fast break
p401
(F0.0
F3.0
tp402
sVleft side of the six yard box-headed pass
p403
(F2.0
F4.0
tp404
sVlong range-left footed shot-corner
p405
(F54.0
F664.0
tp406
sVleft side-left footed shot-corner
p407
(F980.0
F4744.0
tp408
sVright side of the six yard box-header-through ball
p409
(F0.0
F2.0
tp410
sVlong range-header
p411
(F0.0
F1.0
tp412
sVpenalty-right footed shot
p413
(F2165.0
F2681.0
tp414
sVvery close range-header
p415
(F1386.0
F3684.0
tp416
sVlong range-right footed shot-corner
p417
(F118.0
F1302.0
tp418
sVleft side of the six yard box-cross
p419
(F6.0
F36.0
tp420
sVvery close range-right footed shot-fast break
p421
(F55.0
F65.0
tp422
sVvery close range
p423
(F4196.0
F8163.0
tp424
sVlong range-left footed shot-headed pass
p425
(F2.0
F47.0
tp426
sVlong range-right footed shot-cross
p427
(F0.0
F27.0
tp428
sVlong range-right footed shot
p429
(F81.0
F3884.0
tp430
sVheader-headed pass
p431
(I1
I3
tp432
sVleft side
p433
(F1470.0
F22310.0
tp434
sV-header-headed pass
p435
(F1.0
F3.0
tp436
sVright side of the six yard box-left footed shot-corner
p437
(F104.0
F200.0
tp438
sVoutside the box-left footed shot-direct free kick
p439
(F0.0
F2896.0
tp440
sVcentre of the box-right footed shot-fast break
p441
(F229.0
F759.0
tp442
sVvery close range-header-headed pass
p443
(F263.0
F591.0
tp444
sVleft side of the six yard box-right footed shot
p445
(F292.0
F1432.0
tp446
sVoutside the box-right footed shot-cross
p447
(F24.0
F1171.0
tp448
sVvery close range-left footed shot-headed pass
p449
(F111.0
F223.0
tp450
sVoutside the box-right footed shot
p451
(F2163.0
F118749.0
tp452
sVright footed shot-corner
p453
(I636
I1538
tp454
s.