(dp0
S''
p1
(I723
I743
tp2
sVleft side-cross
p3
(I0
I8
tp4
sVpenalty-left footed shot
p5
(I875
I1071
tp6
sVleft footed shot-headed pass
p7
(I9
I202
tp8
sVright side-left footed shot-headed pass
p9
(I11
I251
tp10
sVleft side of the six yard box-headed pass
p11
(I1
I4
tp12
sVright side-left footed shot-direct free kick
p13
(I0
I1
tp14
sVright side-header-corner
p15
(I1
I10
tp16
sVleft side-header-direct free kick
p17
(I0
I2
tp18
sVvery close range-left footed shot-through ball
p19
(I33
I45
tp20
sVvery close range-corner
p21
(I17
I17
tp22
sVleft side-right footed shot-cross
p23
(I42
I960
tp24
sVright side-right footed shot-through ball
p25
(I599
I3466
tp26
sVcentre of the box-left footed shot-fast break
p27
(I358
I619
tp28
sVleft side-right footed shot-through ball
p29
(I183
I1003
tp30
sVcorner
p31
(I479
I486
tp32
sVleft footed shot-cross
p33
(I21
I441
tp34
sVlong range-right footed shot-direct free kick
p35
(I0
I9
tp36
sVright side-cross
p37
(I0
I7
tp38
sVlong range-left footed shot-cross
p39
(I1
I28
tp40
sVoutside the box-header-cross
p41
(I2
I135
tp42
sVoutside the box-right footed shot-corner
p43
(I67
I1223
tp44
sVoutside the box-header
p45
(I7
I246
tp46
sVcentre of the box-left footed shot-through ball
p47
(I888
I2586
tp48
sVpenalty
p49
(I4018
I4955
tp50
sVcentre of the box-left footed shot-corner
p51
(I80
I293
tp52
sVvery close range-header-cross
p53
(I1502
I4556
tp54
sVright side of the six yard box-header-corner
p55
(I6
I36
tp56
sVlong range
p57
(I213
I8058
tp58
sVcross
p59
(I0
I9
tp60
sVlong range-right footed shot-headed pass
p61
(I3
I121
tp62
sVleft side of the six yard box-header-corner
p63
(I16
I59
tp64
sVcentre of the box-right footed shot-corner
p65
(I144
I483
tp66
sVcentre of the box
p67
(I22513
I148412
tp68
sVright side of the six yard box-left footed shot-headed pass
p69
(I5
I37
tp70
sVright side of the six yard box-right footed shot-fast break
p71
(I27
I39
tp72
sVright side of the six yard box-right footed shot-cross
p73
(I223
I1103
tp74
sVright side-left footed shot-fast break
p75
(I20
I104
tp76
sVleft side of the six yard box-left footed shot-fast break
p77
(I18
I32
tp78
sVleft side-header-through ball
p79
(I0
I6
tp80
sVleft side of the six yard box-left footed shot-cross
p81
(I143
I634
tp82
sVoutside the box-left footed shot-through ball
p83
(I71
I339
tp84
sVlong range-right footed shot-through ball
p85
(I4
I23
tp86
sVlong range-right footed shot-fast break
p87
(I5
I51
tp88
sVright side of the six yard box-left footed shot-direct free kick
p89
g14
sVleft side of the six yard box-right footed shot-headed pass
p90
(I24
I98
tp91
sVcentre of the box-right footed shot-through ball
p92
(I1755
I4964
tp93
sVoutside the box-through ball
p94
g14
sVleft footed shot
p95
(I14311
I153928
tp96
sVvery close range-right footed shot-corner
p97
(I181
I221
tp98
sVright footed shot-direct free kick
p99
(I0
I12
tp100
sVcentre of the box-right footed shot-direct free kick
p101
(I0
I6
tp102
sVlong range-left footed shot-direct free kick
p103
(I0
I3
tp104
sVvery close range-left footed shot
p105
(I1121
I1815
tp106
sVleft side of the six yard box-header
p107
(I76
I418
tp108
sVright side-right footed shot-direct free kick
p109
(I0
I2
tp110
sVcentre of the box-corner
p111
(I5
I9
tp112
sVleft side-header
p113
(I15
I401
tp114
sVoutside the box-left footed shot-corner
p115
(I31
I607
tp116
sVleft side of the six yard box-right footed shot-cross
p117
(I100
I608
tp118
sVright side of the six yard box-left footed shot-fast break
p119
(I1
I4
tp120
sVleft side-left footed shot-direct free kick
p121
g14
sVleft side of the six yard box-header-headed pass
p122
(I22
I118
tp123
sVoutside the box-left footed shot-headed pass
p124
(I62
I2225
tp125
sVcentre of the box-cross
p126
(I49
I502
tp127
sVright side of the six yard box-headed pass
p128
(I1
I1
tp129
sVvery close range-left footed shot-corner
p130
(I87
I110
tp131
sVright side of the six yard box-right footed shot-headed pass
p132
(I44
I190
tp133
sVright side-left footed shot-corner
p134
(I12
I140
tp135
sVleft footed shot-fast break
p136
(I19
I93
tp137
sVoutside the box
p138
(I5638
I207961
tp139
sVheader-corner
p140
(I0
I5
tp141
sVleft side of the six yard box-header-fast break
p142
(I0
I3
tp143
sVcentre of the box-through ball
p144
(I0
I2
tp145
sVleft side-left footed shot-headed pass
p146
(I46
I803
tp147
sVcentre of the box-right footed shot-cross
p148
(I1518
I11159
tp149
sVleft side-right footed shot-corner
p150
(I20
I195
tp151
sVright side of the six yard box-cross
p152
(I2
I45
tp153
sVleft side-right footed shot-fast break
p154
(I82
I325
tp155
sVoutside the box-right footed shot-direct free kick
p156
(I2
I350
tp157
sVcentre of the box-left footed shot-headed pass
p158
(I271
I1693
tp159
sVright footed shot
p160
(I26726
I262021
tp161
sVleft side-right footed shot
p162
(I686
I14136
tp163
sVright side of the six yard box-right footed shot-through ball
p164
(I74
I199
tp165
sVcentre of the box-header-cross
p166
(I4738
I52374
tp167
sVright side of the six yard box-header-fast break
p168
(I0
I2
tp169
sVright side of the six yard box-left footed shot
p170
(I97
I414
tp171
sVleft footed shot-direct free kick
p172
(I0
I7
tp173
sVright side of the six yard box-header
p174
(I56
I362
tp175
sVleft side of the six yard box-right footed shot-through ball
p176
(I27
I81
tp177
sVvery close range-cross
p178
(I47
I138
tp179
sVleft side of the six yard box-left footed shot-corner
p180
(I18
I50
tp181
sVcentre of the box-header-fast break
p182
(I11
I31
tp183
sVleft side-headed pass
p184
g14
sVcentre of the box-left footed shot
p185
(I3659
I21244
tp186
sVright side of the six yard box
p187
(I1515
I7386
tp188
sVoutside the box-header-corner
p189
g14
sVoutside the box-right footed shot-through ball
p190
(I204
I846
tp191
sVleft side-header-headed pass
p192
(I1
I16
tp193
sVright side of the six yard box-right footed shot
p194
(I486
I1829
tp195
sVleft side of the six yard box-header-direct free kick
p196
g14
sVright side of the six yard box-right footed shot-corner
p197
(I22
I53
tp198
sVoutside the box-left footed shot
p199
(I1710
I70156
tp200
sVright side-right footed shot-headed pass
p201
(I67
I1054
tp202
sVright side
p203
(I2628
I38934
tp204
sVright side-header-cross
p205
(I17
I1121
tp206
sVright side-header-direct free kick
p207
g14
sVright side-right footed shot-fast break
p208
(I177
I851
tp209
sVleft side of the six yard box-right footed shot-corner
p210
(I13
I49
tp211
sVright side-header-headed pass
p212
(I0
I13
tp213
sVcentre of the box-header-headed pass
p214
(I97
I1066
tp215
sVheader-cross
p216
(I21
I984
tp217
sVoutside the box-header-fast break
p218
(I0
I3
tp219
sVright footed shot-fast break
p220
(I24
I104
tp221
sVcentre of the box-header
p222
(I663
I7445
tp223
sVcentre of the box-right footed shot
p224
(I6219
I33334
tp225
sVvery close range-left footed shot-fast break
p226
(I35
I40
tp227
sVvery close range-right footed shot
p228
(I1983
I3130
tp229
sVlong range-left footed shot-fast break
p230
(I1
I27
tp231
sVoutside the box-right footed shot-fast break
p232
(I185
I1376
tp233
sVvery close range-right footed shot-headed pass
p234
(I216
I446
tp235
sVright footed shot-through ball
p236
(I132
I814
tp237
sVoutside the box-left footed shot-fast break
p238
(I92
I739
tp239
sVright side of the six yard box-left footed shot-through ball
p240
(I4
I19
tp241
sVright footed shot-cross
p242
(I36
I740
tp243
sVlong range-left footed shot-through ball
p244
(I4
I17
tp245
sVleft side-left footed shot-through ball
p246
(I411
I2589
tp247
sVleft side-right footed shot-direct free kick
p248
(I1
I5
tp249
sVcentre of the box-header-direct free kick
p250
(I0
I9
tp251
sVright side-right footed shot-corner
p252
(I21
I175
tp253
sVcentre of the box-header-through ball
p254
(I60
I271
tp255
sVvery close range-headed pass
p256
(I14
I25
tp257
sVleft footed shot-corner
p258
(I1
I33
tp259
sVright side-header
p260
(I8
I373
tp261
sVright side of the six yard box-header-headed pass
p262
(I20
I118
tp263
sVlong range-left footed shot
p264
(I56
I2780
tp265
sVright side of the six yard box-header-cross
p266
(I392
I2694
tp267
sVleft side-left footed shot
p268
(I794
I15934
tp269
sVright side of the six yard box-header-direct free kick
p270
g14
sVcentre of the box-left footed shot-cross
p271
(I775
I5746
tp272
sVvery close range-header-corner
p273
(I91
I146
tp274
sVleft side of the six yard box-left footed shot-headed pass
p275
(I30
I138
tp276
sVoutside the box-right footed shot-headed pass
p277
(I118
I3778
tp278
sVright side of the six yard box-left footed shot-cross
p279
(I48
I210
tp280
sVleft side-right footed shot-headed pass
p281
(I27
I493
tp282
sVvery close range-header-through ball
p283
(I3
I4
tp284
sVheader-through ball
p285
(I2
I4
tp286
sVleft side-left footed shot-fast break
p287
(I145
I634
tp288
sVoutside the box-left footed shot-cross
p289
(I17
I716
tp290
sVright side-left footed shot-through ball
p291
(I55
I334
tp292
sVcentre of the box-right footed shot-headed pass
p293
(I468
I3040
tp294
sVleft side-header-corner
p295
(I1
I9
tp296
sVright side-left footed shot
p297
(I351
I7713
tp298
sVfast break
p299
(I5
I5
tp300
sVvery close range-left footed shot-cross
p301
(I346
I684
tp302
sVright side-header-through ball
p303
(I0
I4
tp304
sVoutside the box-header-headed pass
p305
(I0
I5
tp306
sVright side-left footed shot-cross
p307
(I15
I396
tp308
sVlong range-header-cross
p309
g14
sVcentre of the box-headed pass
p310
(I1
I12
tp311
sVoutside the box-header-through ball
p312
(I0
I11
tp313
sVright side-right footed shot-cross
p314
(I77
I1907
tp315
sVright footed shot-headed pass
p316
(I20
I325
tp317
sVright side-right footed shot
p318
(I1196
I21004
tp319
sS'date'
p320
S'20171106'
p321
sVvery close range-right footed shot-through ball
p322
(I37
I59
tp323
sVvery close range-header-fast break
p324
(I8
I9
tp325
sVleft side of the six yard box-right footed shot-fast break
p326
(I8
I14
tp327
sVheader
p328
(I8980
I79005
tp329
sVcentre of the box-header-corner
p330
(I24
I226
tp331
sVleft side of the six yard box-left footed shot-through ball
p332
(I52
I139
tp333
sVleft side of the six yard box
p334
(I1535
I7574
tp335
sVleft side of the six yard box-corner
p336
(I1
I2
tp337
sVvery close range-fast break
p338
(I2
I2
tp339
sVleft side of the six yard box-header-cross
p340
(I381
I2749
tp341
sVright side of the six yard box-corner
p342
(I0
I3
tp343
sVvery close range-right footed shot-cross
p344
(I657
I1283
tp345
sVleft side-header-cross
p346
(I26
I1214
tp347
sVcentre of the box-right footed shot-fast break
p348
(I681
I1161
tp349
sVright side-header-fast break
p350
(I0
I3
tp351
sVlong range-left footed shot-corner
p352
(I3
I55
tp353
sVleft side-left footed shot-corner
p354
(I17
I129
tp355
sVright side of the six yard box-header-through ball
p356
(I0
I5
tp357
sVleft side of the six yard box-header-through ball
p358
(I2
I5
tp359
sVpenalty-right footed shot
p360
(I3143
I3884
tp361
sVvery close range-header
p362
(I455
I997
tp363
sVleft footed shot-through ball
p364
(I80
I568
tp365
sVleft side-left footed shot-cross
p366
(I66
I1455
tp367
sVlong range-right footed shot-corner
p368
(I9
I101
tp369
sVleft side of the six yard box-cross
p370
(I5
I36
tp371
sVvery close range-right footed shot-fast break
p372
(I78
I86
tp373
sVvery close range
p374
(I7325
I14677
tp375
sVlong range-left footed shot-headed pass
p376
(I2
I61
tp377
sVlong range-right footed shot-cross
p378
(I0
I27
tp379
sVlong range-right footed shot
p380
(I125
I4752
tp381
sVheader-headed pass
p382
(I1
I12
tp383
sVleft side
p384
(I2564
I40323
tp385
sVright side of the six yard box-left footed shot-corner
p386
(I5
I13
tp387
sVoutside the box-left footed shot-direct free kick
p388
(I5
I203
tp389
sVleft side of the six yard box-left footed shot
p390
(I370
I1374
tp391
sVvery close range-header-headed pass
p392
(I244
I557
tp393
sVleft side of the six yard box-right footed shot
p394
(I223
I947
tp395
sVright footed shot-corner
p396
(I3
I58
tp397
sVvery close range-left footed shot-headed pass
p398
(I94
I197
tp399
sVoutside the box-right footed shot
p400
(I3030
I123725
tp401
sVoutside the box-right footed shot-cross
p402
(I29
I1257
tp403
s.